(dp0
S'6:36'
p1
L3126L
sS'13:57'
p2
L3106L
sS'28:94'
p3
L3110L
sS'31:81'
p4
L3087L
sS'10:59'
p5
L3139L
sS'24:55'
p6
L3131L
sS'2:23'
p7
L3151L
sS'24:50'
p8
L3123L
sS'16:39'
p9
L3052L
sS'21:113'
p10
L3116L
sS'14:107'
p11
L3079L
sS'21:57'
p12
L3102L
sS'46:114'
p13
L3102L
sS'36:90'
p14
L3110L
sS'10:39'
p15
L3071L
sS'22:92'
p16
L3086L
sS'32:86'
p17
L3072L
sS'33:80'
p18
L3079L
sS'30:72'
p19
L3106L
sS'20:122'
p20
L3095L
sS'23:108'
p21
L3108L
sS'7:28'
p22
L3104L
sS'4:35'
p23
L3118L
sS'4:19'
p24
L3235L
sS'23:128'
p25
L3078L
sS'40:84'
p26
L3105L
sS'4:15'
p27
L3347L
sS'9:72'
p28
L3097L
sS'44:128'
p29
L3070L
sS'3:10'
p30
L3681L
sS'3:12'
p31
L3494L
sS'20:44'
p32
L3097L
sS'19:38'
p33
L3079L
sS'1:9'
p34
L3845L
sS'14:100'
p35
L3098L
sS'35:100'
p36
L3071L
sS'7:49'
p37
L3159L
sS'31:128'
p38
L3042L
sS'4:9'
p39
L3901L
sS'1:4'
p40
L4812L
sS'12:50'
p41
L3137L
sS'36:128'
p42
L3018L
sS'41:123'
p43
L3062L
sS'10:23'
p44
L3185L
sS'14:110'
p45
L3079L
sS'26:72'
p46
L3097L
sS'4:17'
p47
L3312L
sS'12:32'
p48
L3112L
sS'17:118'
p49
L3095L
sS'11:109'
p50
L3073L
sS'5:51'
p51
L3122L
sS'36:87'
p52
L3117L
sS'14:39'
p53
L3094L
sS'2:13'
p54
L3435L
sS'14:36'
p55
L3088L
sS'24:116'
p56
L3100L
sS'2:10'
p57
L3674L
sS'19:119'
p58
L3073L
sS'1:14'
p59
L3481L
sS'55:111'
p60
L3118L
sS'24:97'
p61
L3083L
sS'7:16'
p62
L3362L
sS'14:40'
p63
L3102L
sS'5:55'
p64
L3141L
sS'9:29'
p65
L3127L
sS'17:42'
p66
L3125L
s.