(dp0
S'12:48'
p1
L73L
sS'13:32'
p2
L70L
sS'19:108'
p3
L95L
sS'12:40'
p4
L66L
sS'11:28'
p5
L68L
sS'10:50'
p6
L75L
sS'10:59'
p7
L77L
sS'19:47'
p8
L72L
sS'54:114'
p9
L100L
sS'9:34'
p10
L73L
sS'8:65'
p11
L77L
sS'26:70'
p12
L82L
sS'3:17'
p13
L64L
sS'21:75'
p14
L83L
sS'1:8'
p15
L72L
sS'1:9'
p16
L67L
sS'42:85'
p17
L83L
sS'1:4'
p18
L78L
sS'1:5'
p19
L76L
sS'17:47'
p20
L72L
sS'10:47'
p21
L74L
sS'17:40'
p22
L68L
sS'13:88'
p23
L86L
sS'32:104'
p24
L94L
sS'55:111'
p25
L95L
sS'5:25'
p26
L68L
sS'18:70'
p27
L80L
sS'2:11'
p28
L67L
sS'2:16'
p29
L66L
sS'18:79'
p30
L82L
sS'57:128'
p31
L105L
sS'16:64'
p32
L73L
sS'25:121'
p33
L106L
sS'52:104'
p34
L95L
sS'11:43'
p35
L75L
sS'12:27'
p36
L72L
sS'12:25'
p37
L67L
sS'10:71'
p38
L80L
sS'2:19'
p39
L65L
sS'36:97'
p40
L89L
sS'5:19'
p41
L65L
sS'5:16'
p42
L68L
sS'8:41'
p43
L68L
sS'17:114'
p44
L102L
sS'44:107'
p45
L98L
sS'28:100'
p46
L93L
sS'6:21'
p47
L64L
sS'24:49'
p48
L74L
sS'6:27'
p49
L72L
sS'10:66'
p50
L78L
sS'16:81'
p51
L82L
sS'12:95'
p52
L90L
sS'14:33'
p53
L72L
sS'4:27'
p54
L72L
sS'4:21'
p55
L66L
sS'4:22'
p56
L67L
sS'5:53'
p57
L75L
sS'30:112'
p58
L102L
sS'17:104'
p59
L95L
sS'29:59'
p60
L75L
sS'29:58'
p61
L72L
sS'29:103'
p62
L96L
sS'24:54'
p63
L72L
sS'34:107'
p64
L98L
sS'25:62'
p65
L79L
sS'35:79'
p66
L81L
sS'33:100'
p67
L95L
sS'23:86'
p68
L84L
sS'9:35'
p69
L73L
sS'15:47'
p70
L68L
sS'8:21'
p71
L65L
sS'8:24'
p72
L63L
sS'8:25'
p73
L68L
sS'50:101'
p74
L94L
sS'26:78'
p75
L80L
sS'26:118'
p76
L103L
sS'3:7'
p77
L72L
sS'34:111'
p78
L98L
sS'11:109'
p79
L98L
sS'32:94'
p80
L88L
sS'1:10'
p81
L66L
sS'1:11'
p82
L66L
sS'32:93'
p83
L89L
sS'8:39'
p84
L69L
sS'34:71'
p85
L81L
sS'10:83'
p86
L102L
sS'7:16'
p87
L65L
sS'34:78'
p88
L81L
sS'13:54'
p89
L73L
sS'13:55'
p90
L75L
sS'35:111'
p91
L97L
sS'15:31'
p92
L69L
sS'10:39'
p93
L69L
sS'38:88'
p94
L88L
sS'33:82'
p95
L82L
sS'23:61'
p96
L77L
sS'2:7'
p97
L72L
sS'2:4'
p98
L83L
sS'14:48'
p99
L77L
sS'15:68'
p100
L79L
sS'4:14'
p101
L70L
sS'4:10'
p102
L68L
sS'2:8'
p103
L72L
sS'26:52'
p104
L74L
sS'29:65'
p105
L73L
sS'31:110'
p106
L98L
sS'12:54'
p107
L70L
sS'16:48'
p108
L70L
sS'23:59'
p109
L77L
sS'29:84'
p110
L80L
sS'23:52'
p111
L76L
sS'18:44'
p112
L68L
s.