(dp0
S'13:31'
p1
L1953L
sS'13:36'
p2
L1959L
sS'13:37'
p3
L1931L
sS'7:54'
p4
L1975L
sS'5:33'
p5
L1939L
sS'5:36'
p6
L1921L
sS'26:90'
p7
L1910L
sS'22:60'
p8
L1960L
sS'22:63'
p9
L1960L
sS'9:36'
p10
L1935L
sS'2:4'
p11
L2812L
sS'3:15'
p12
L2093L
sS'49:120'
p13
L2018L
sS'45:113'
p14
L1933L
sS'42:104'
p15
L1966L
sS'1:4'
p16
L2778L
sS'1:6'
p17
L2329L
sS'7:40'
p18
L1944L
sS'17:46'
p19
L1963L
sS'20:93'
p20
L1980L
sS'12:35'
p21
L1921L
sS'12:37'
p22
L1924L
sS'5:25'
p23
L1974L
sS'2:15'
p24
L2078L
sS'61:128'
p25
L1980L
sS'24:90'
p26
L1914L
sS'8:78'
p27
L1954L
sS'62:128'
p28
L1981L
sS'30:98'
p29
L1985L
sS'2:22'
p30
L1994L
sS'11:40'
p31
L1971L
sS'52:109'
p32
L1973L
sS'19:66'
p33
L1996L
sS'30:94'
p34
L1980L
sS'36:98'
p35
L1989L
sS'12:58'
p36
L1954L
sS'5:13'
p37
L2151L
sS'40:86'
p38
L1954L
sS'3:35'
p39
L1953L
sS'30:84'
p40
L1984L
sS'28:103'
p41
L1922L
sS'31:117'
p42
L1932L
sS'9:85'
p43
L1919L
sS'39:83'
p44
L1931L
sS'6:20'
p45
L2025L
sS'23:96'
p46
L1975L
sS'12:90'
p47
L1952L
sS'9:25'
p48
L1984L
sS'32:126'
p49
L1960L
sS'18:93'
p50
L1961L
sS'31:121'
p51
L1966L
sS'40:99'
p52
L1983L
sS'56:113'
p53
L1968L
sS'27:117'
p54
L1976L
sS'35:71'
p55
L1956L
sS'35:76'
p56
L1965L
sS'64:128'
p57
L1924L
sS'21:115'
p58
L1918L
sS'32:64'
p59
L1935L
sS'27:95'
p60
L2007L
sS'19:85'
p61
L1996L
sS'4:34'
p62
L1943L
sS'10:90'
p63
L1962L
sS'48:108'
p64
L1974L
sS'28:68'
p65
L1950L
sS'50:101'
p66
L1985L
sS'50:104'
p67
L1980L
sS'17:83'
p68
L1978L
sS'41:86'
p69
L1957L
sS'1:12'
p70
L2155L
sS'17:53'
p71
L1995L
sS'21:89'
p72
L1968L
sS'14:58'
p73
L1957L
sS'14:53'
p74
L1994L
sS'29:128'
p75
L1917L
sS'24:75'
p76
L1921L
sS'22:87'
p77
L1952L
sS'8:80'
p78
L1956L
sS'10:39'
p79
L1928L
sS'16:53'
p80
L2003L
sS'23:67'
p81
L1989L
sS'10:31'
p82
L1950L
sS'16:57'
p83
L1980L
sS'2:6'
p84
L2344L
sS'5:59'
p85
L1972L
sS'20:55'
p86
L1970L
sS'14:46'
p87
L1961L
sS'14:47'
p88
L1968L
sS'5:56'
p89
L1921L
sS'36:74'
p90
L1972L
sS'29:60'
p91
L1962L
sS'46:116'
p92
L1968L
sS'1:7'
p93
L2255L
sS'17:61'
p94
L1967L
sS'11:89'
p95
L1963L
sS'7:30'
p96
L1948L
s.