(dp0
S'13:31'
p1
L69L
sS'56:112'
p2
L78L
sS'25:107'
p3
L77L
sS'13:38'
p4
L64L
sS'28:93'
p5
L77L
sS'11:28'
p6
L64L
sS'10:54'
p7
L68L
sS'15:98'
p8
L77L
sS'14:67'
p9
L72L
sS'5:35'
p10
L68L
sS'5:37'
p11
L73L
sS'22:63'
p12
L69L
sS'15:32'
p13
L64L
sS'11:92'
p14
L76L
sS'12:41'
p15
L71L
sS'49:124'
p16
L85L
sS'49:125'
p17
L82L
sS'11:36'
p18
L67L
sS'35:128'
p19
L81L
sS'1:4'
p20
L91L
sS'2:19'
p21
L69L
sS'1:6'
p22
L80L
sS'1:7'
p23
L69L
sS'12:38'
p24
L70L
sS'25:59'
p25
L69L
sS'14:43'
p26
L67L
sS'14:115'
p27
L79L
sS'5:21'
p28
L68L
sS'4:43'
p29
L74L
sS'4:40'
p30
L68L
sS'2:13'
p31
L65L
sS'35:90'
p32
L79L
sS'2:11'
p33
L69L
sS'2:17'
p34
L63L
sS'4:49'
p35
L69L
sS'9:25'
p36
L68L
sS'16:100'
p37
L82L
sS'24:53'
p38
L66L
sS'28:112'
p39
L81L
sS'44:94'
p40
L77L
sS'25:127'
p41
L82L
sS'2:22'
p42
L62L
sS'17:55'
p43
L65L
sS'2:20'
p44
L63L
sS'6:13'
p45
L64L
sS'2:28'
p46
L63L
sS'34:75'
p47
L71L
sS'36:92'
p48
L130L
sS'6:68'
p49
L70L
sS'9:92'
p50
L121L
sS'5:13'
p51
L66L
sS'8:42'
p52
L69L
sS'8:40'
p53
L70L
sS'8:45'
p54
L69L
sS'3:36'
p55
L68L
sS'30:84'
p56
L76L
sS'44:108'
p57
L76L
sS'43:112'
p58
L77L
sS'25:78'
p59
L70L
sS'6:27'
p60
L70L
sS'32:128'
p61
L87L
sS'4:26'
p62
L72L
sS'4:20'
p63
L64L
sS'31:125'
p64
L83L
sS'15:38'
p65
L66L
sS'4:29'
p66
L62L
sS'6:34'
p67
L69L
sS'6:31'
p68
L69L
sS'6:32'
p69
L78L
sS'17:105'
p70
L75L
sS'51:103'
p71
L77L
sS'17:102'
p72
L78L
sS'64:128'
p73
L79L
sS'41:96'
p74
L78L
sS'34:86'
p75
L75L
sS'11:118'
p76
L80L
sS'12:89'
p77
L77L
sS'23:88'
p78
L77L
sS'11:115'
p79
L74L
sS'16:77'
p80
L74L
sS'4:36'
p81
L66L
sS'27:78'
p82
L69L
sS'8:25'
p83
L66L
sS'10:107'
p84
L77L
sS'3:8'
p85
L72L
sS'3:9'
p86
L77L
sS'26:72'
p87
L71L
sS'1:19'
p88
L60L
sS'1:13'
p89
L66L
sS'20:41'
p90
L71L
sS'8:19'
p91
L59L
sS'9:69'
p92
L73L
sS'7:15'
p93
L70L
sS'34:73'
p94
L74L
sS'7:76'
p95
L71L
sS'27:72'
p96
L70L
sS'6:54'
p97
L70L
sS'22:117'
p98
L77L
sS'12:69'
p99
L70L
sS'8:87'
p100
L77L
sS'22:81'
p101
L73L
sS'10:47'
p102
L67L
sS'38:88'
p103
L75L
sS'19:104'
p104
L79L
sS'47:97'
p105
L76L
sS'42:108'
p106
L79L
sS'2:6'
p107
L81L
sS'2:4'
p108
L99L
sS'4:10'
p109
L73L
sS'4:13'
p110
L69L
sS'28:88'
p111
L78L
sS'38:77'
p112
L73L
sS'22:93'
p113
L75L
sS'37:79'
p114
L73L
sS'12:54'
p115
L69L
sS'6:62'
p116
L69L
sS'53:120'
p117
L83L
sS'16:44'
p118
L69L
sS'10:29'
p119
L67L
sS'29:87'
p120
L76L
sS'5:41'
p121
L70L
sS'17:61'
p122
L68L
sS'17:65'
p123
L67L
sS'7:38'
p124
L67L
sS'11:89'
p125
L76L
sS'7:37'
p126
L73L
sS'20:60'
p127
L68L
sS'21:42'
p128
L69L
sS'14:74'
p129
L72L
s.