(dp0
S'13:36'
p1
L53L
sS'25:57'
p2
L70L
sS'13:35'
p3
L54L
sS'31:83'
p4
L59L
sS'11:29'
p5
L51L
sS'16:36'
p6
L53L
sS'10:59'
p7
L53L
sS'16:38'
p8
L50L
sS'14:67'
p9
L56L
sS'2:4'
p10
L66L
sS'9:33'
p11
L55L
sS'21:73'
p12
L59L
sS'3:12'
p13
L47L
sS'7:26'
p14
L49L
sS'31:99'
p15
L67L
sS'4:9'
p16
L49L
sS'7:45'
p17
L56L
sS'1:4'
p18
L62L
sS'1:5'
p19
L57L
sS'1:7'
p20
L54L
sS'25:51'
p21
L54L
sS'29:92'
p22
L66L
sS'13:83'
p23
L62L
sS'17:41'
p24
L50L
sS'20:91'
p25
L63L
sS'5:51'
p26
L55L
sS'55:116'
p27
L75L
sS'15:64'
p28
L59L
sS'2:11'
p29
L51L
sS'2:10'
p30
L47L
sS'21:69'
p31
L68L
sS'4:48'
p32
L58L
sS'22:75'
p33
L60L
sS'35:80'
p34
L59L
sS'9:23'
p35
L47L
sS'9:22'
p36
L50L
sS'8:71'
p37
L57L
sS'61:122'
p38
L76L
sS'34:69'
p39
L60L
sS'16:104'
p40
L69L
sS'7:73'
p41
L60L
sS'62:127'
p42
L76L
sS'44:97'
p43
L66L
sS'17:50'
p44
L53L
sS'36:119'
p45
L75L
sS'17:58'
p46
L56L
sS'19:62'
p47
L59L
sS'13:118'
p48
L81L
sS'6:13'
p49
L51L
sS'26:89'
p50
L63L
sS'29:83'
p51
L62L
sS'36:99'
p52
L105L
sS'15:111'
p53
L72L
sS'5:14'
p54
L46L
sS'9:91'
p55
L63L
sS'40:80'
p56
L62L
sS'8:44'
p57
L52L
sS'28:102'
p58
L71L
sS'44:107'
p59
L73L
sS'11:53'
p60
L56L
sS'34:99'
p61
L103L
sS'3:25'
p62
L48L
sS'12:91'
p63
L63L
sS'12:90'
p64
L65L
sS'14:36'
p65
L54L
sS'14:34'
p66
L52L
sS'15:37'
p67
L53L
sS'4:28'
p68
L51L
sS'6:31'
p69
L51L
sS'24:54'
p70
L54L
sS'26:68'
p71
L58L
sS'21:115'
p72
L75L
sS'33:66'
p73
L58L
sS'24:59'
p74
L56L
sS'17:35'
p75
L51L
sS'16:48'
p76
L55L
sS'11:116'
p77
L76L
sS'17:38'
p78
L53L
sS'30:76'
p79
L60L
sS'19:121'
p80
L77L
sS'4:38'
p81
L53L
sS'31:76'
p82
L58L
sS'10:103'
p83
L69L
sS'57:115'
p84
L74L
sS'41:88'
p85
L64L
sS'50:103'
p86
L71L
sS'50:101'
p87
L68L
sS'13:42'
p88
L49L
sS'24:68'
p89
L58L
sS'3:7'
p90
L51L
sS'38:96'
p91
L65L
sS'1:14'
p92
L49L
sS'28:128'
p93
L80L
sS'7:18'
p94
L47L
sS'18:39'
p95
L50L
sS'8:27'
p96
L51L
sS'34:78'
p97
L59L
sS'29:73'
p98
L58L
sS'6:55'
p99
L54L
sS'37:108'
p100
L72L
sS'19:63'
p101
L56L
sS'8:81'
p102
L58L
sS'23:69'
p103
L60L
sS'2:6'
p104
L56L
sS'2:5'
p105
L54L
sS'5:59'
p106
L56L
sS'20:57'
p107
L54L
sS'4:16'
p108
L50L
sS'4:10'
p109
L51L
sS'2:8'
p110
L57L
sS'35:105'
p111
L73L
sS'26:53'
p112
L53L
sS'29:64'
p113
L58L
sS'13:28'
p114
L50L
sS'28:87'
p115
L61L
sS'6:61'
p116
L57L
sS'10:24'
p117
L52L
sS'14:73'
p118
L60L
sS'10:28'
p119
L54L
sS'8:17'
p120
L48L
sS'24:115'
p121
L76L
sS'33:91'
p122
L64L
sS'17:67'
p123
L59L
sS'17:122'
p124
L79L
sS'21:48'
p125
L52L
sS'21:46'
p126
L53L
sS'18:50'
p127
L53L
sS'7:34'
p128
L53L
sS'7:35'
p129
L52L
sS'18:57'
p130
L53L
sS'20:60'
p131
L56L
s.