(dp0
S'13:32'
p1
L3172L
sS'13:37'
p2
L3117L
sS'27:57'
p3
L3170L
sS'27:56'
p4
L3079L
sS'13:38'
p5
L3108L
sS'11:28'
p6
L3173L
sS'10:59'
p7
L3180L
sS'19:42'
p8
L3132L
sS'5:39'
p9
L3134L
sS'17:77'
p10
L3172L
sS'22:66'
p11
L3086L
sS'8:64'
p12
L3092L
sS'7:28'
p13
L3179L
sS'7:21'
p14
L3234L
sS'3:16'
p15
L3228L
sS'3:11'
p16
L3611L
sS'18:44'
p17
L3148L
sS'7:49'
p18
L3197L
sS'25:116'
p19
L3130L
sS'1:4'
p20
L4511L
sS'1:6'
p21
L3786L
sS'1:7'
p22
L3635L
sS'2:11'
p23
L3604L
sS'8:77'
p24
L3145L
sS'9:23'
p25
L3229L
sS'51:122'
p26
L3171L
sS'2:24'
p27
L3101L
sS'6:17'
p28
L3399L
sS'31:63'
p29
L3200L
sS'5:17'
p30
L3394L
sS'40:83'
p31
L3127L
sS'22:126'
p32
L3119L
sS'23:128'
p33
L3151L
sS'3:35'
p34
L3046L
sS'19:75'
p35
L3088L
sS'22:55'
p36
L3189L
sS'24:48'
p37
L3106L
sS'3:26'
p38
L3165L
sS'16:87'
p39
L3182L
sS'27:106'
p40
L3170L
sS'14:33'
p41
L3132L
sS'15:36'
p42
L3130L
sS'4:22'
p43
L3242L
sS'8:54'
p44
L3158L
sS'26:95'
p45
L3193L
sS'26:69'
p46
L3205L
sS'11:66'
p47
L3160L
sS'25:60'
p48
L3159L
sS'13:72'
p49
L3169L
sS'25:65'
p50
L3194L
sS'11:114'
p51
L3042L
sS'38:128'
p52
L3160L
sS'4:35'
p53
L3153L
sS'15:42'
p54
L3045L
sS'8:20'
p55
L3253L
sS'21:71'
p56
L3183L
sS'10:106'
p57
L3117L
sS'24:89'
p58
L3192L
sS'3:9'
p59
L3867L
sS'34:112'
p60
L3079L
sS'1:19'
p61
L3224L
sS'18:128'
p62
L3138L
sS'1:13'
p63
L3396L
sS'1:10'
p64
L3698L
sS'10:86'
p65
L3153L
sS'34:74'
p66
L3176L
sS'7:19'
p67
L3157L
sS'15:58'
p68
L3163L
sS'8:37'
p69
L3130L
sS'8:36'
p70
L3040L
sS'30:113'
p71
L3101L
sS'27:76'
p72
L3164L
sS'20:105'
p73
L3143L
sS'10:33'
p74
L3126L
sS'2:4'
p75
L4554L
sS'20:54'
p76
L3085L
sS'4:11'
p77
L3624L
sS'14:43'
p78
L3125L
sS'13:29'
p79
L3186L
sS'22:103'
p80
L3103L
sS'7:36'
p81
L3024L
sS'41:102'
p82
L3205L
sS'10:23'
p83
L3233L
sS'5:42'
p84
L3144L
sS'8:18'
p85
L3281L
sS'11:83'
p86
L3157L
sS'18:51'
p87
L3095L
sS'14:70'
p88
L3081L
sS'18:55'
p89
L3186L
sS'16:120'
p90
L3166L
s.