(dp0
S'14:99'
p1
L3968L
sS'5:15'
p2
L4483L
sS'31:87'
p3
L4263L
sS'14:92'
p4
L4145L
sS'37:81'
p5
L4208L
sS'12:93'
p6
L4177L
sS'15:115'
p7
L3967L
sS'17:83'
p8
L4008L
sS'20:87'
p9
L4194L
sS'10:52'
p10
L4238L
sS'15:116'
p11
L3994L
sS'36:116'
p12
L4264L
sS'9:95'
p13
L3973L
sS'14:107'
p14
L3979L
sS'15:98'
p15
L4016L
sS'5:30'
p16
L4225L
sS'22:68'
p17
L4190L
sS'14:66'
p18
L4189L
sS'17:126'
p19
L3957L
sS'20:128'
p20
L3968L
sS'13:127'
p21
L3935L
sS'12:105'
p22
L4181L
sS'12:106'
p23
L3951L
sS'12:107'
p24
L3949L
sS'7:41'
p25
L4158L
sS'24:81'
p26
L4186L
sS'7:54'
p27
L4243L
sS'11:90'
p28
L3978L
sS'11:96'
p29
L3930L
sS'9:31'
p30
L4205L
sS'24:87'
p31
L4226L
sS'3:16'
p32
L4401L
sS'18:121'
p33
L3971L
sS'11:31'
p34
L4186L
sS'11:35'
p35
L4235L
sS'20:119'
p36
L4184L
sS'14:80'
p37
L4187L
sS'45:118'
p38
L4208L
sS'1:4'
p39
L5968L
sS'14:87'
p40
L4008L
sS'14:84'
p41
L4179L
sS'10:42'
p42
L4156L
sS'14:46'
p43
L3991L
sS'13:84'
p44
L4220L
sS'36:128'
p45
L4223L
sS'16:78'
p46
L4000L
sS'10:45'
p47
L4271L
sS'14:113'
p48
L4009L
sS'14:115'
p49
L3987L
sS'17:124'
p50
L3902L
sS'4:47'
p51
L4264L
sS'4:45'
p52
L4224L
sS'4:42'
p53
L4146L
sS'15:128'
p54
L3975L
sS'54:127'
p55
L4257L
sS'54:128'
p56
L4208L
sS'15:124'
p57
L4108L
sS'2:11'
p58
L4826L
sS'15:126'
p59
L3990L
sS'15:121'
p60
L4186L
sS'15:120'
p61
L3994L
sS'4:48'
p62
L4222L
sS'12:114'
p63
L4163L
sS'15:125'
p64
L3919L
sS'9:25'
p65
L4249L
sS'8:74'
p66
L3959L
sS'12:112'
p67
L3965L
sS'25:89'
p68
L4257L
sS'15:127'
p69
L4139L
sS'8:78'
p70
L4160L
sS'25:128'
p71
L4115L
sS'13:122'
p72
L3974L
sS'14:126'
p73
L4007L
sS'7:79'
p74
L4151L
sS'14:120'
p75
L3989L
sS'14:121'
p76
L3967L
sS'28:117'
p77
L4208L
sS'7:72'
p78
L4184L
sS'44:91'
p79
L4227L
sS'7:70'
p80
L4186L
sS'52:121'
p81
L4129L
sS'44:94'
p82
L4253L
sS'7:77'
p83
L3966L
sS'21:85'
p84
L4197L
sS'17:50'
p85
L4213L
sS'2:24'
p86
L4182L
sS'13:111'
p87
L3959L
sS'15:123'
p88
L3941L
sS'2:21'
p89
L4333L
sS'17:59'
p90
L4206L
sS'12:118'
p91
L3967L
sS'19:66'
p92
L4243L
sS'34:128'
p93
L4197L
sS'2:29'
p94
L4228L
sS'9:98'
p95
L4203L
sS'9:99'
p96
L3965L
sS'16:112'
p97
L4016L
sS'9:92'
p98
L4159L
sS'15:111'
p99
L3970L
sS'6:69'
p100
L4169L
sS'13:74'
p101
L4230L
sS'9:94'
p102
L4153L
sS'15:117'
p103
L4158L
sS'22:122'
p104
L4140L
sS'17:121'
p105
L3966L
sS'49:104'
p106
L4255L
sS'49:105'
p107
L4296L
sS'3:35'
p108
L4154L
sS'19:76'
p109
L4188L
sS'17:119'
p110
L3990L
sS'17:116'
p111
L4063L
sS'17:117'
p112
L3972L
sS'17:114'
p113
L3992L
sS'17:115'
p114
L4173L
sS'11:57'
p115
L4176L
sS'30:128'
p116
L4198L
sS'15:104'
p117
L3964L
sS'13:69'
p118
L4193L
sS'13:107'
p119
L3968L
sS'13:106'
p120
L3980L
sS'34:97'
p121
L4219L
sS'11:118'
p122
L3961L
sS'39:120'
p123
L4187L
sS'13:63'
p124
L4227L
sS'13:62'
p125
L4206L
sS'16:80'
p126
L4208L
sS'18:104'
p127
L4214L
sS'16:103'
p128
L4180L
sS'33:110'
p129
L4212L
sS'3:20'
p130
L4356L
sS'43:97'
p131
L4185L
sS'13:100'
p132
L4003L
sS'9:67'
p133
L4009L
sS'7:64'
p134
L4008L
sS'18:108'
p135
L3985L
sS'27:103'
p136
L4234L
sS'13:105'
p137
L4180L
sS'31:128'
p138
L4178L
sS'25:113'
p139
L4198L
sS'20:127'
p140
L3944L
sS'15:108'
p141
L3969L
sS'37:125'
p142
L3982L
sS'14:124'
p143
L3964L
sS'37:121'
p144
L4185L
sS'14:125'
p145
L3957L
sS'17:105'
p146
L4020L
sS'16:119'
p147
L3950L
sS'25:68'
p148
L4204L
sS'35:123'
p149
L4116L
sS'14:127'
p150
L3975L
sS'13:77'
p151
L4201L
sS'29:108'
p152
L4205L
sS'11:113'
p153
L3951L
sS'28:56'
p154
L4220L
sS'20:100'
p155
L3986L
sS'9:78'
p156
L3986L
sS'12:88'
p157
L4143L
sS'35:110'
p158
L4266L
sS'55:128'
p159
L4253L
sS'11:114'
p160
L4092L
sS'11:115'
p161
L4105L
sS'11:116'
p162
L4128L
sS'14:123'
p163
L3924L
sS'11:110'
p164
L3944L
sS'11:111'
p165
L3985L
sS'17:39'
p166
L4134L
sS'4:37'
p167
L4174L
sS'19:128'
p168
L4156L
sS'2:8'
p169
L4686L
sS'13:52'
p170
L4226L
sS'18:110'
p171
L3984L
sS'8:23'
p172
L4314L
sS'9:74'
p173
L4183L
sS'25:122'
p174
L3998L
sS'23:106'
p175
L4184L
sS'9:77'
p176
L4142L
sS'12:71'
p177
L4182L
sS'32:120'
p178
L4205L
sS'22:115'
p179
L4153L
sS'33:70'
p180
L4286L
sS'10:108'
p181
L3974L
sS'10:106'
p182
L4158L
sS'14:128'
p183
L4120L
sS'10:105'
p184
L4092L
sS'10:102'
p185
L4140L
sS'3:27'
p186
L4209L
sS'28:69'
p187
L4234L
sS'13:128'
p188
L3951L
sS'13:119'
p189
L3965L
sS'35:102'
p190
L4224L
sS'13:123'
p191
L4151L
sS'49:113'
p192
L4202L
sS'9:91'
p193
L3980L
sS'11:70'
p194
L4220L
sS'13:126'
p195
L3938L
sS'13:125'
p196
L3921L
sS'13:124'
p197
L3938L
sS'18:120'
p198
L3973L
sS'23:116'
p199
L4170L
sS'11:108'
p200
L3971L
sS'18:124'
p201
L3937L
sS'18:125'
p202
L3929L
sS'18:126'
p203
L3908L
sS'18:127'
p204
L3973L
sS'18:128'
p205
L4159L
sS'19:125'
p206
L3950L
sS'32:97'
p207
L4187L
sS'1:11'
p208
L4793L
sS'13:110'
p209
L3982L
sS'11:104'
p210
L3965L
sS'34:77'
p211
L4242L
sS'11:119'
p212
L3962L
sS'14:54'
p213
L4231L
sS'19:126'
p214
L3919L
sS'8:37'
p215
L4128L
sS'12:62'
p216
L4201L
sS'7:76'
p217
L3986L
sS'19:127'
p218
L3919L
sS'28:74'
p219
L4260L
sS'28:76'
p220
L4201L
sS'22:119'
p221
L4012L
sS'6:59'
p222
L4198L
sS'11:42'
p223
L4175L
sS'16:105'
p224
L3988L
sS'29:128'
p225
L4149L
sS'20:102'
p226
L4202L
sS'60:128'
p227
L4210L
sS'8:86'
p228
L4160L
sS'8:87'
p229
L4153L
sS'8:85'
p230
L3955L
sS'1:6'
p231
L5057L
sS'8:83'
p232
L4166L
sS'25:118'
p233
L4010L
sS'12:122'
p234
L4134L
sS'12:123'
p235
L4127L
sS'12:120'
p236
L3972L
sS'12:121'
p237
L4180L
sS'12:126'
p238
L4151L
sS'9:53'
p239
L4222L
sS'12:124'
p240
L3925L
sS'12:125'
p241
L3963L
sS'12:128'
p242
L4116L
sS'18:123'
p243
L3968L
sS'10:36'
p244
L4177L
sS'2:6'
p245
L4984L
sS'5:58'
p246
L4159L
sS'11:82'
p247
L3953L
sS'15:67'
p248
L4224L
sS'15:62'
p249
L4233L
sS'5:55'
p250
L4218L
sS'19:38'
p251
L4118L
sS'28:88'
p252
L4259L
sS'53:128'
p253
L4252L
sS'6:66'
p254
L4195L
sS'21:128'
p255
L4137L
sS'6:65'
p256
L4176L
sS'42:128'
p257
L4196L
sS'6:60'
p258
L3995L
sS'6:61'
p259
L4184L
sS'31:96'
p260
L4246L
sS'10:22'
p261
L4312L
sS'16:127'
p262
L3968L
sS'24:125'
p263
L3934L
sS'16:124'
p264
L3920L
sS'12:127'
p265
L3928L
sS'16:125'
p266
L3980L
sS'14:118'
p267
L3940L
sS'23:53'
p268
L4324L
sS'5:48'
p269
L4224L
sS'24:113'
p270
L4233L
sS'17:127'
p271
L3958L
sS'15:110'
p272
L4031L
sS'17:125'
p273
L3964L
sS'10:41'
p274
L4187L
sS'17:122'
p275
L3982L
sS'16:128'
p276
L3954L
sS'17:120'
p277
L3989L
sS'16:126'
p278
L4129L
sS'11:88'
p279
L3978L
sS'14:71'
p280
L4012L
sS'16:121'
p281
L3975L
sS'16:122'
p282
L3983L
sS'16:123'
p283
L4140L
sS'17:128'
p284
L3991L
s.