(dp0
S'6:53'
p1
L888L
sS'13:55'
p2
L898L
sS'7:79'
p3
L841L
sS'14:121'
p4
L898L
sS'6:32'
p5
L878L
sS'30:75'
p6
L888L
sS'30:119'
p7
L897L
sS'26:104'
p8
L906L
sS'34:107'
p9
L879L
sS'6:16'
p10
L958L
sS'26:121'
p11
L875L
sS'24:58'
p12
L885L
sS'22:48'
p13
L886L
sS'32:115'
p14
L867L
sS'30:92'
p15
L859L
sS'18:84'
p16
L878L
sS'14:68'
p17
L872L
sS'15:43'
p18
L869L
sS'12:82'
p19
L870L
sS'4:36'
p20
L893L
sS'9:36'
p21
L882L
sS'9:30'
p22
L893L
sS'11:72'
p23
L881L
sS'25:80'
p24
L894L
sS'3:14'
p25
L986L
sS'3:33'
p26
L864L
sS'2:8'
p27
L1055L
sS'29:68'
p28
L842L
sS'31:116'
p29
L886L
sS'1:5'
p30
L1206L
sS'17:110'
p31
L893L
sS'26:90'
p32
L880L
sS'14:46'
p33
L860L
sS'4:18'
p34
L926L
sS'17:85'
p35
L874L
sS'19:114'
p36
L873L
sS'32:76'
p37
L872L
sS'18:104'
p38
L849L
sS'9:45'
p39
L887L
sS'8:17'
p40
L959L
sS'5:43'
p41
L872L
sS'8:20'
p42
L899L
sS'16:64'
p43
L868L
sS'19:96'
p44
L904L
sS'23:54'
p45
L882L
sS'4:24'
p46
L899L
sS'16:88'
p47
L860L
sS'21:45'
p48
L928L
sS'12:111'
p49
L899L
sS'9:29'
p50
L892L
s.