(dp0
S'11:26'
p1
L1132L
sS'32:85'
p2
L1167L
sS'37:88'
p3
L1148L
sS'31:89'
p4
L1142L
sS'13:38'
p5
L1118L
sS'12:43'
p6
L1160L
sS'28:92'
p7
L1150L
sS'25:100'
p8
L1137L
sS'31:80'
p9
L1108L
sS'39:113'
p10
L1169L
sS'15:95'
p11
L1139L
sS'19:49'
p12
L1137L
sS'41:119'
p13
L1145L
sS'14:60'
p14
L1115L
sS'17:77'
p15
L1125L
sS'9:30'
p16
L1124L
sS'17:49'
p17
L1137L
sS'7:22'
p18
L1153L
sS'3:10'
p19
L1313L
sS'3:11'
p20
L1306L
sS'48:96'
p21
L1171L
sS'48:115'
p22
L1158L
sS'11:34'
p23
L1117L
sS'37:98'
p24
L1164L
sS'45:114'
p25
L1173L
sS'7:47'
p26
L1166L
sS'13:88'
p27
L1128L
sS'31:94'
p28
L1141L
sS'1:5'
p29
L1522L
sS'1:6'
p30
L1371L
sS'14:85'
p31
L1131L
sS'10:40'
p32
L1112L
sS'10:45'
p33
L1146L
sS'12:30'
p34
L1129L
sS'36:122'
p35
L1151L
sS'17:48'
p36
L1133L
sS'5:22'
p37
L1165L
sS'29:93'
p38
L1149L
sS'5:26'
p39
L1142L
sS'2:13'
p40
L1248L
sS'2:12'
p41
L1251L
sS'2:11'
p42
L1302L
sS'2:10'
p43
L1314L
sS'2:15'
p44
L1216L
sS'61:128'
p45
L1161L
sS'24:97'
p46
L1127L
sS'5:55'
p47
L1128L
sS'22:70'
p48
L1138L
sS'44:98'
p49
L1157L
sS'14:126'
p50
L1126L
sS'21:83'
p51
L1143L
sS'7:71'
p52
L1126L
sS'7:76'
p53
L1132L
sS'21:85'
p54
L1147L
sS'13:112'
p55
L1130L
sS'13:116'
p56
L1133L
sS'13:114'
p57
L1146L
sS'34:128'
p58
L1153L
sS'37:75'
p59
L1127L
sS'36:93'
p60
L1155L
sS'5:18'
p61
L1163L
sS'16:110'
p62
L1136L
sS'5:14'
p63
L1226L
sS'3:39'
p64
L1110L
sS'3:32'
p65
L1112L
sS'30:85'
p66
L1141L
sS'34:72'
p67
L1127L
sS'22:51'
p68
L1131L
sS'6:28'
p69
L1151L
sS'43:115'
p70
L1158L
sS'15:102'
p71
L1133L
sS'10:60'
p72
L1123L
sS'22:59'
p73
L1130L
sS'13:60'
p74
L1115L
sS'20:128'
p75
L1137L
sS'43:91'
p76
L1179L
sS'32:74'
p77
L1145L
sS'33:110'
p78
L1142L
sS'32:125'
p79
L1137L
sS'3:23'
p80
L1155L
sS'18:94'
p81
L1136L
sS'8:57'
p82
L1148L
sS'31:128'
p83
L1138L
sS'56:113'
p84
L1153L
sS'53:117'
p85
L1143L
sS'40:128'
p86
L1156L
sS'51:104'
p87
L1161L
sS'24:57'
p88
L1129L
sS'11:69'
p89
L1130L
sS'27:114'
p90
L1138L
sS'28:56'
p91
L1133L
sS'34:87'
p92
L1158L
sS'38:123'
p93
L1153L
sS'47:103'
p94
L1160L
sS'12:84'
p95
L1125L
sS'16:72'
p96
L1133L
sS'9:71'
p97
L1118L
sS'30:105'
p98
L1134L
sS'37:112'
p99
L1150L
sS'33:77'
p100
L1144L
sS'3:8'
p101
L1278L
sS'29:116'
p102
L1150L
sS'26:75'
p103
L1130L
sS'41:84'
p104
L1147L
sS'13:46'
p105
L1135L
sS'18:98'
p106
L1158L
sS'12:83'
p107
L1135L
sS'9:38'
p108
L1120L
sS'1:16'
p109
L1186L
sS'23:70'
p110
L1144L
sS'7:16'
p111
L1210L
sS'10:81'
p112
L1122L
sS'9:62'
p113
L1141L
sS'34:79'
p114
L1134L
sS'29:71'
p115
L1132L
sS'13:52'
p116
L1134L
sS'27:78'
p117
L1131L
sS'20:102'
p118
L1142L
sS'8:86'
p119
L1133L
sS'8:85'
p120
L1133L
sS'22:87'
p121
L1139L
sS'20:109'
p122
L1146L
sS'8:81'
p123
L1129L
sS'19:102'
p124
L1146L
sS'24:77'
p125
L1130L
sS'23:69'
p126
L1125L
sS'47:94'
p127
L1148L
sS'23:65'
p128
L1121L
sS'23:63'
p129
L1109L
sS'33:86'
p130
L1164L
sS'2:6'
p131
L1338L
sS'20:57'
p132
L1127L
sS'4:15'
p133
L1200L
sS'4:16'
p134
L1188L
sS'2:8'
p135
L1236L
sS'28:88'
p136
L1133L
sS'26:53'
p137
L1134L
sS'1:4'
p138
L1612L
sS'53:122'
p139
L1167L
sS'35:121'
p140
L1148L
sS'40:119'
p141
L1150L
sS'16:49'
p142
L1148L
sS'55:125'
p143
L1162L
sS'9:44'
p144
L1134L
sS'46:105'
p145
L1141L
sS'8:18'
p146
L1174L
sS'33:94'
p147
L1146L
sS'7:33'
p148
L1125L
s.