(dp0
S'45:104'
p1
L3912L
sS'21:66'
p2
L4254L
sS'27:55'
p3
L3975L
sS'7:57'
p4
L4223L
sS'31:107'
p5
L3902L
sS'28:91'
p6
L3908L
sS'16:35'
p7
L3931L
sS'36:116'
p8
L4156L
sS'5:36'
p9
L4185L
sS'46:93'
p10
L3899L
sS'9:34'
p11
L4264L
sS'3:18'
p12
L4456L
sS'49:128'
p13
L4159L
sS'24:89'
p14
L3894L
sS'7:20'
p15
L4427L
sS'7:25'
p16
L4386L
sS'3:12'
p17
L4894L
sS'1:9'
p18
L4792L
sS'1:4'
p19
L7616L
sS'2:19'
p20
L4538L
sS'21:96'
p21
L4138L
sS'17:47'
p22
L4090L
sS'36:128'
p23
L4028L
sS'36:127'
p24
L4187L
sS'56:127'
p25
L4148L
sS'59:128'
p26
L3889L
sS'4:44'
p27
L4097L
sS'18:74'
p28
L4175L
sS'55:112'
p29
L3916L
sS'22:70'
p30
L4196L
sS'2:10'
p31
L5284L
sS'4:48'
p32
L3976L
sS'61:128'
p33
L3886L
sS'19:92'
p34
L4008L
sS'21:53'
p35
L3951L
sS'9:21'
p36
L4378L
sS'20:111'
p37
L4154L
sS'36:115'
p38
L3873L
sS'61:122'
p39
L3933L
sS'25:128'
p40
L3898L
sS'62:128'
p41
L3930L
sS'11:41'
p42
L4191L
sS'43:105'
p43
L4209L
sS'52:109'
p44
L3894L
sS'6:15'
p45
L4699L
sS'6:13'
p46
L4892L
sS'6:12'
p47
L4396L
sS'38:77'
p48
L3931L
sS'5:19'
p49
L4621L
sS'5:12'
p50
L4369L
sS'23:128'
p51
L3885L
sS'38:78'
p52
L3941L
sS'33:120'
p53
L3908L
sS'14:58'
p54
L3931L
sS'30:84'
p55
L3918L
sS'51:111'
p56
L4140L
sS'51:113'
p57
L3885L
sS'57:124'
p58
L3929L
sS'10:69'
p59
L4069L
sS'30:128'
p60
L3877L
sS'6:20'
p61
L4410L
sS'6:61'
p62
L3918L
sS'39:125'
p63
L4168L
sS'11:59'
p64
L3925L
sS'36:80'
p65
L4156L
sS'3:21'
p66
L4372L
sS'26:52'
p67
L3967L
sS'27:107'
p68
L4208L
sS'2:21'
p69
L4417L
sS'32:79'
p70
L4205L
sS'15:33'
p71
L4214L
sS'8:54'
p72
L3961L
sS'48:117'
p73
L3916L
sS'7:33'
p74
L4191L
sS'51:103'
p75
L3884L
sS'17:102'
p76
L3917L
sS'43:128'
p77
L3902L
sS'64:128'
p78
L3907L
sS'29:108'
p79
L4187L
sS'33:67'
p80
L3932L
sS'8:28'
p81
L3928L
sS'23:82'
p82
L4181L
sS'32:64'
p83
L3933L
sS'20:128'
p84
L3906L
sS'4:35'
p85
L4208L
sS'11:113'
p86
L4153L
sS'10:95'
p87
L4130L
sS'15:43'
p88
L4194L
sS'4:34'
p89
L3899L
sS'4:30'
p90
L4294L
sS'8:25'
p91
L4304L
sS'28:63'
p92
L4203L
sS'21:121'
p93
L4154L
sS'12:76'
p94
L4200L
sS'37:118'
p95
L4129L
sS'6:49'
p96
L4234L
sS'10:104'
p97
L3912L
sS'48:101'
p98
L3874L
sS'50:100'
p99
L3915L
sS'13:48'
p100
L3967L
sS'63:127'
p101
L3892L
sS'36:86'
p102
L3893L
sS'41:83'
p103
L3920L
sS'30:68'
p104
L3938L
sS'58:116'
p105
L3921L
sS'23:115'
p106
L3899L
sS'27:89'
p107
L4200L
sS'20:110'
p108
L4074L
sS'11:102'
p109
L4178L
sS'20:42'
p110
L3886L
sS'18:37'
p111
L3896L
sS'18:36'
p112
L3900L
sS'7:16'
p113
L4179L
sS'14:55'
p114
L4254L
sS'21:43'
p115
L4245L
sS'14:51'
p116
L4246L
sS'14:50'
p117
L3992L
sS'14:52'
p118
L4303L
sS'13:55'
p119
L4308L
sS'18:96'
p120
L3913L
sS'17:91'
p121
L4146L
sS'28:78'
p122
L4188L
sS'6:18'
p123
L4484L
sS'58:128'
p124
L3889L
sS'12:75'
p125
L3927L
sS'24:70'
p126
L3944L
sS'19:103'
p127
L4114L
sS'24:120'
p128
L4154L
sS'24:123'
p129
L4193L
sS'9:53'
p130
L3962L
sS'38:86'
p131
L4050L
sS'33:86'
p132
L3898L
sS'2:7'
p133
L4487L
sS'2:6'
p134
L4710L
sS'2:5'
p135
L5747L
sS'44:127'
p136
L3896L
sS'4:13'
p137
L4842L
sS'2:8'
p138
L5122L
sS'36:73'
p139
L3910L
sS'26:55'
p140
L4221L
sS'35:103'
p141
L3895L
sS'21:95'
p142
L4171L
sS'42:128'
p143
L4145L
sS'1:5'
p144
L6884L
sS'50:128'
p145
L4142L
sS'5:47'
p146
L3988L
sS'8:16'
p147
L4188L
sS'17:60'
p148
L4225L
sS'23:55'
p149
L4252L
sS'54:109'
p150
L3897L
sS'20:66'
p151
L3992L
sS'12:128'
p152
L3882L
s.