(dp0
S'11:25'
p1
L51L
sS'28:99'
p2
L102L
sS'31:101'
p3
L67L
sS'14:94'
p4
L66L
sS'36:113'
p5
L73L
sS'36:112'
p6
L72L
sS'50:108'
p7
L67L
sS'14:64'
p8
L52L
sS'5:36'
p9
L53L
sS'48:126'
p10
L74L
sS'24:83'
p11
L58L
sS'9:31'
p12
L51L
sS'18:46'
p13
L53L
sS'20:76'
p14
L57L
sS'28:125'
p15
L75L
sS'45:112'
p16
L74L
sS'45:111'
p17
L69L
sS'4:9'
p18
L59L
sS'1:4'
p19
L63L
sS'1:6'
p20
L57L
sS'10:43'
p21
L52L
sS'17:45'
p22
L54L
sS'19:57'
p23
L52L
sS'10:48'
p24
L51L
sS'12:111'
p25
L70L
sS'2:10'
p26
L49L
sS'33:69'
p27
L56L
sS'10:52'
p28
L55L
sS'9:23'
p29
L51L
sS'9:20'
p30
L48L
sS'61:123'
p31
L72L
sS'61:125'
p32
L72L
sS'21:81'
p33
L59L
sS'22:46'
p34
L51L
sS'19:69'
p35
L58L
sS'19:68'
p36
L57L
sS'6:15'
p37
L49L
sS'36:92'
p38
L61L
sS'9:18'
p39
L46L
sS'17:117'
p40
L73L
sS'43:110'
p41
L70L
sS'45:98'
p42
L66L
sS'21:103'
p43
L70L
sS'6:21'
p44
L50L
sS'36:82'
p45
L59L
sS'14:36'
p46
L51L
sS'15:37'
p47
L50L
sS'8:59'
p48
L56L
sS'15:31'
p49
L54L
sS'30:70'
p50
L56L
sS'8:55'
p51
L53L
sS'40:97'
p52
L65L
sS'48:116'
p53
L71L
sS'48:117'
p54
L72L
sS'28:58'
p55
L54L
sS'64:128'
p56
L71L
sS'25:63'
p57
L54L
sS'14:29'
p58
L50L
sS'43:86'
p59
L60L
sS'16:78'
p60
L60L
sS'27:95'
p61
L63L
sS'32:69'
p62
L58L
sS'19:83'
p63
L59L
sS'16:71'
p64
L58L
sS'7:65'
p65
L56L
sS'10:93'
p66
L62L
sS'19:122'
p67
L72L
sS'8:26'
p68
L52L
sS'28:61'
p69
L56L
sS'10:100'
p70
L66L
sS'63:126'
p71
L73L
sS'41:120'
p72
L73L
sS'13:43'
p73
L54L
sS'26:118'
p74
L71L
sS'3:7'
p75
L58L
sS'26:86'
p76
L61L
sS'1:13'
p77
L52L
sS'30:61'
p78
L54L
sS'1:14'
p79
L50L
sS'49:98'
p80
L64L
sS'13:51'
p81
L54L
sS'22:118'
p82
L123L
sS'12:69'
p83
L58L
sS'45:127'
p84
L74L
sS'46:115'
p85
L74L
sS'2:4'
p86
L63L
sS'4:19'
p87
L45L
sS'4:11'
p88
L50L
sS'4:10'
p89
L49L
sS'34:69'
p90
L56L
sS'41:107'
p91
L69L
sS'17:69'
p92
L55L
sS'5:41'
p93
L50L
sS'33:92'
p94
L63L
sS'23:55'
p95
L54L
sS'18:59'
p96
L52L
sS'18:51'
p97
L53L
s.