(dp0
S'53:114'
p1
L79L
sS'24:117'
p2
L77L
sS'12:43'
p3
L62L
sS'37:80'
p4
L66L
sS'17:52'
p5
L61L
sS'20:102'
p6
L76L
sS'43:104'
p7
L75L
sS'10:56'
p8
L62L
sS'32:65'
p9
L62L
sS'9:51'
p10
L62L
sS'38:104'
p11
L73L
sS'12:85'
p12
L67L
sS'31:69'
p13
L63L
sS'22:64'
p14
L63L
sS'20:123'
p15
L76L
sS'33:86'
p16
L67L
sS'20:52'
p17
L59L
sS'7:28'
p18
L61L
sS'20:50'
p19
L60L
sS'8:41'
p20
L66L
sS'14:48'
p21
L59L
sS'5:24'
p22
L58L
sS'3:11'
p23
L60L
sS'4:13'
p24
L60L
sS'11:34'
p25
L59L
sS'21:48'
p26
L61L
sS'12:77'
p27
L66L
sS'23:116'
p28
L78L
sS'13:29'
p29
L58L
sS'38:78'
p30
L66L
sS'7:43'
p31
L58L
sS'40:108'
p32
L74L
sS'10:25'
p33
L57L
sS'17:44'
p34
L61L
sS'16:40'
p35
L60L
sS'26:95'
p36
L71L
sS'56:126'
p37
L79L
sS'46:102'
p38
L73L
sS'8:17'
p39
L56L
sS'18:70'
p40
L63L
sS'2:10'
p41
L62L
sS'9:46'
p42
L62L
sS'4:10'
p43
L62L
sS'15:78'
p44
L66L
sS'20:95'
p45
L71L
sS'20:69'
p46
L64L
sS'7:36'
p47
L63L
sS'9:61'
p48
L69L
sS'15:73'
p49
L65L
sS'8:36'
p50
L61L
sS'7:31'
p51
L61L
s.