(dp0
S'12:44'
p1
L73L
sS'12:45'
p2
L72L
sS'10:50'
p3
L74L
sS'16:37'
p4
L71L
sS'5:37'
p5
L69L
sS'17:77'
p6
L76L
sS'8:67'
p7
L75L
sS'21:72'
p8
L76L
sS'11:33'
p9
L69L
sS'1:4'
p10
L85L
sS'31:82'
p11
L73L
sS'39:102'
p12
L83L
sS'17:42'
p13
L73L
sS'3:33'
p14
L67L
sS'36:125'
p15
L86L
sS'12:31'
p16
L63L
sS'54:122'
p17
L83L
sS'44:128'
p18
L85L
sS'27:128'
p19
L85L
sS'2:10'
p20
L63L
sS'18:78'
p21
L87L
sS'9:25'
p22
L65L
sS'7:71'
p23
L74L
sS'4:16'
p24
L66L
sS'22:45'
p25
L69L
sS'17:56'
p26
L67L
sS'6:17'
p27
L69L
sS'6:14'
p28
L68L
sS'4:19'
p29
L64L
sS'18:64'
p30
L70L
sS'32:110'
p31
L77L
sS'31:63'
p32
L69L
sS'18:67'
p33
L73L
sS'5:17'
p34
L69L
sS'5:15'
p35
L66L
sS'35:95'
p36
L77L
sS'23:124'
p37
L89L
sS'8:49'
p38
L74L
sS'19:74'
p39
L75L
sS'13:67'
p40
L73L
sS'24:49'
p41
L70L
sS'32:76'
p42
L75L
sS'18:104'
p43
L82L
sS'14:36'
p44
L70L
sS'23:99'
p45
L80L
sS'51:109'
p46
L79L
sS'17:100'
p47
L81L
sS'25:61'
p48
L74L
sS'13:72'
p49
L74L
sS'14:29'
p50
L64L
sS'23:84'
p51
L78L
sS'27:96'
p52
L79L
sS'47:101'
p53
L82L
sS'10:96'
p54
L110L
sS'15:47'
p55
L75L
sS'8:23'
p56
L74L
sS'12:70'
p57
L77L
sS'33:76'
p58
L76L
sS'57:114'
p59
L78L
sS'7:77'
p60
L73L
sS'34:119'
p61
L83L
sS'34:110'
p62
L83L
sS'27:89'
p63
L81L
sS'27:84'
p64
L79L
sS'1:13'
p65
L65L
sS'1:10'
p66
L65L
sS'7:17'
p67
L70L
sS'8:33'
p68
L74L
sS'9:62'
p69
L69L
sS'12:63'
p70
L71L
sS'12:60'
p71
L69L
sS'35:112'
p72
L77L
sS'28:56'
p73
L68L
sS'53:107'
p74
L78L
sS'19:63'
p75
L82L
sS'12:122'
p76
L84L
sS'9:52'
p77
L77L
sS'38:89'
p78
L76L
sS'46:112'
p79
L81L
sS'16:53'
p80
L73L
sS'10:32'
p81
L64L
sS'10:36'
p82
L66L
sS'2:7'
p83
L66L
sS'25:84'
p84
L77L
sS'2:4'
p85
L88L
sS'44:127'
p86
L85L
sS'4:18'
p87
L60L
sS'4:17'
p88
L67L
sS'21:56'
p89
L71L
sS'36:73'
p90
L71L
sS'22:108'
p91
L82L
sS'38:76'
p92
L72L
sS'10:25'
p93
L64L
sS'10:27'
p94
L63L
sS'10:20'
p95
L61L
sS'16:41'
p96
L70L
sS'15:82'
p97
L76L
sS'9:50'
p98
L70L
sS'33:94'
p99
L79L
sS'54:109'
p100
L79L
sS'3:31'
p101
L69L
sS'11:86'
p102
L79L
sS'18:53'
p103
L72L
s.