(dp0
S'42:112'
p1
L2947L
sS'13:31'
p2
L3217L
sS'45:101'
p3
L3020L
sS'45:102'
p4
L3011L
sS'42:119'
p5
L3080L
sS'11:29'
p6
L3093L
sS'20:80'
p7
L3005L
sS'10:58'
p8
L3073L
sS'39:118'
p9
L3065L
sS'26:127'
p10
L2988L
sS'20:88'
p11
L2899L
sS'42:115'
p12
L3027L
sS'5:33'
p13
L3121L
sS'14:74'
p14
L3003L
sS'46:92'
p15
L3043L
sS'22:60'
p16
L3156L
sS'22:62'
p17
L2976L
sS'55:128'
p18
L2976L
sS'24:82'
p19
L3124L
sS'24:84'
p20
L3072L
sS'49:128'
p21
L2984L
sS'27:56'
p22
L2988L
sS'18:43'
p23
L3133L
sS'23:73'
p24
L3021L
sS'20:57'
p25
L3068L
sS'21:99'
p26
L3068L
sS'40:117'
p27
L3055L
sS'40:112'
p28
L3006L
sS'11:38'
p29
L3123L
sS'40:123'
p30
L2938L
sS'42:103'
p31
L2991L
sS'1:5'
p32
L4475L
sS'1:6'
p33
L4345L
sS'25:112'
p34
L3045L
sS'56:128'
p35
L2992L
sS'25:52'
p36
L3008L
sS'36:128'
p37
L3062L
sS'12:35'
p38
L3066L
sS'32:102'
p39
L3044L
sS'41:86'
p40
L2951L
sS'10:49'
p41
L3158L
sS'36:121'
p42
L3005L
sS'32:103'
p43
L3061L
sS'18:77'
p44
L3024L
sS'55:110'
p45
L2994L
sS'4:44'
p46
L3092L
sS'4:42'
p47
L3155L
sS'5:26'
p48
L3387L
sS'18:71'
p49
L3205L
sS'34:101'
p50
L2987L
sS'2:12'
p51
L3335L
sS'5:29'
p52
L3229L
sS'23:85'
p53
L2980L
sS'9:20'
p54
L3431L
sS'61:123'
p55
L3024L
sS'27:86'
p56
L3039L
sS'16:106'
p57
L2979L
sS'64:128'
p58
L2981L
sS'44:98'
p59
L2874L
sS'40:103'
p60
L3098L
sS'44:90'
p61
L3006L
sS'25:122'
p62
L3007L
sS'44:114'
p63
L2904L
sS'15:128'
p64
L2973L
sS'11:45'
p65
L3033L
sS'2:24'
p66
L3288L
sS'22:44'
p67
L3065L
sS'60:125'
p68
L3027L
sS'11:40'
p69
L3130L
sS'6:19'
p70
L3475L
sS'30:100'
p71
L2913L
sS'6:16'
p72
L3684L
sS'6:15'
p73
L3722L
sS'11:49'
p74
L3005L
sS'41:115'
p75
L2982L
sS'34:128'
p76
L3041L
sS'31:64'
p77
L2896L
sS'36:95'
p78
L3068L
sS'29:85'
p79
L3016L
sS'41:113'
p80
L3008L
sS'35:102'
p81
L2962L
sS'20:64'
p82
L2918L
sS'22:125'
p83
L3011L
sS'3:37'
p84
L3246L
sS'49:106'
p85
L3003L
sS'46:128'
p86
L2981L
sS'20:116'
p87
L3006L
sS'19:73'
p88
L3122L
sS'44:101'
p89
L3059L
sS'44:103'
p90
L2994L
sS'24:95'
p91
L3047L
sS'19:79'
p92
L3024L
sS'28:100'
p93
L3005L
sS'45:98'
p94
L2991L
sS'13:69'
p95
L2996L
sS'43:114'
p96
L2893L
sS'39:80'
p97
L3052L
sS'22:58'
p98
L3131L
sS'27:122'
p99
L3011L
sS'25:75'
p100
L3043L
sS'45:90'
p101
L3013L
sS'52:113'
p102
L2929L
sS'39:126'
p103
L3017L
sS'43:87'
p104
L2991L
sS'16:80'
p105
L3009L
sS'49:116'
p106
L3021L
sS'16:64'
p107
L2987L
sS'18:38'
p108
L3150L
sS'11:66'
p109
L3037L
sS'3:20'
p110
L3246L
sS'49:111'
p111
L3046L
sS'14:63'
p112
L3005L
sS'27:100'
p113
L3003L
sS'14:31'
p114
L3237L
sS'15:36'
p115
L3088L
sS'39:128'
p116
L3004L
sS'46:93'
p117
L2969L
sS'41:104'
p118
L2926L
sS'31:128'
p119
L3007L
sS'6:34'
p120
L3043L
sS'6:30'
p121
L3162L
sS'36:74'
p122
L3006L
sS'40:128'
p123
L2966L
sS'51:106'
p124
L3001L
sS'29:59'
p125
L3009L
sS'6:38'
p126
L3144L
sS'53:118'
p127
L3030L
sS'39:91'
p128
L2983L
sS'33:69'
p129
L3112L
sS'35:77'
p130
L3095L
sS'24:50'
p131
L3128L
sS'41:95'
p132
L3069L
sS'43:127'
p133
L2995L
sS'33:66'
p134
L3092L
sS'34:86'
p135
L2897L
sS'33:104'
p136
L2904L
sS'27:119'
p137
L3019L
sS'39:120'
p138
L3000L
sS'12:88'
p139
L3056L
sS'32:65'
p140
L3104L
sS'34:70'
p141
L3026L
sS'38:128'
p142
L2977L
sS'30:77'
p143
L2947L
sS'4:30'
p144
L3270L
sS'23:100'
p145
L3069L
sS'44:110'
p146
L2987L
sS'37:111'
p147
L3004L
sS'33:76'
p148
L3037L
sS'28:63'
p149
L3018L
sS'24:87'
p150
L2996L
sS'6:47'
p151
L3068L
sS'53:108'
p152
L2884L
sS'58:118'
p153
L2915L
sS'24:61'
p154
L2982L
sS'33:99'
p155
L2951L
sS'50:106'
p156
L3003L
sS'26:117'
p157
L3080L
sS'63:128'
p158
L2873L
sS'13:125'
p159
L3039L
sS'47:117'
p160
L2919L
sS'47:111'
p161
L3019L
sS'23:91'
p162
L2974L
sS'16:67'
p163
L3079L
sS'30:60'
p164
L3147L
sS'49:99'
p165
L2965L
sS'23:53'
p166
L3009L
sS'10:84'
p167
L3054L
sS'7:15'
p168
L3627L
sS'52:104'
p169
L2903L
sS'14:56'
p170
L3059L
sS'13:55'
p171
L3060L
sS'6:56'
p172
L2994L
sS'28:77'
p173
L2940L
sS'38:117'
p174
L2923L
sS'37:105'
p175
L2879L
sS'37:103'
p176
L2977L
sS'35:119'
p177
L2924L
sS'26:109'
p178
L2921L
sS'45:128'
p179
L3004L
sS'20:100'
p180
L2985L
sS'24:74'
p181
L3003L
sS'8:87'
p182
L2979L
sS'45:126'
p183
L2929L
sS'24:73'
p184
L3124L
sS'59:118'
p185
L2992L
sS'33:88'
p186
L3049L
sS'47:123'
p187
L3032L
sS'37:128'
p188
L2980L
sS'47:128'
p189
L2983L
sS'38:105'
p190
L2896L
sS'23:64'
p191
L2925L
sS'38:107'
p192
L2988L
sS'16:110'
p193
L2910L
sS'19:66'
p194
L3019L
sS'2:7'
p195
L3832L
sS'31:120'
p196
L2913L
sS'4:19'
p197
L3447L
sS'4:18'
p198
L3554L
sS'11:118'
p199
L3000L
sS'34:97'
p200
L2985L
sS'34:68'
p201
L2991L
sS'5:55'
p202
L3030L
sS'16:128'
p203
L3050L
sS'38:77'
p204
L3019L
sS'53:128'
p205
L3078L
sS'13:29'
p206
L3222L
sS'1:4'
p207
L6398L
sS'27:68'
p208
L2998L
sS'31:117'
p209
L3087L
sS'28:82'
p210
L2912L
sS'41:103'
p211
L3013L
sS'50:128'
p212
L3036L
sS'41:105'
p213
L2983L
sS'41:106'
p214
L2894L
sS'36:108'
p215
L3083L
sS'36:109'
p216
L3006L
sS'10:29'
p217
L3311L
sS'23:59'
p218
L2995L
sS'23:58'
p219
L3094L
sS'46:107'
p220
L3074L
sS'8:19'
p221
L3487L
sS'33:93'
p222
L2985L
sS'46:122'
p223
L3027L
sS'23:57'
p224
L3080L
sS'54:108'
p225
L3034L
sS'12:111'
p226
L3000L
sS'50:101'
p227
L2976L
sS'11:87'
p228
L3061L
sS'14:73'
p229
L3094L
sS'10:46'
p230
L3038L
sS'16:121'
p231
L3061L
sS'18:57'
p232
L3074L
sS'7:31'
p233
L3211L
s.