(dp0
S'5:28'
p1
L60L
sS'6:31'
p2
L60L
sS'17:108'
p3
L79L
sS'6:33'
p4
L62L
sS'12:65'
p5
L61L
sS'28:96'
p6
L75L
sS'25:68'
p7
L63L
sS'39:92'
p8
L72L
sS'24:55'
p9
L65L
sS'7:19'
p10
L59L
sS'10:73'
p11
L65L
sS'8:80'
p12
L67L
sS'6:30'
p13
L63L
sS'8:47'
p14
L63L
sS'14:67'
p15
L65L
sS'16:112'
p16
L83L
sS'5:36'
p17
L64L
sS'22:64'
p18
L63L
sS'17:74'
p19
L66L
sS'12:79'
p20
L67L
sS'2:5'
p21
L66L
sS'4:18'
p22
L61L
sS'5:53'
p23
L62L
sS'3:16'
p24
L58L
sS'12:32'
p25
L62L
sS'8:24'
p26
L55L
sS'14:43'
p27
L65L
sS'14:40'
p28
L64L
sS'3:35'
p29
L64L
sS'30:84'
p30
L71L
sS'11:31'
p31
L62L
sS'51:113'
p32
L82L
sS'28:63'
p33
L67L
sS'45:116'
p34
L79L
sS'6:68'
p35
L65L
sS'51:118'
p36
L81L
sS'6:62'
p37
L65L
sS'9:20'
p38
L56L
sS'1:4'
p39
L78L
sS'9:85'
p40
L72L
sS'15:84'
p41
L71L
sS'6:28'
p42
L63L
sS'47:123'
p43
L84L
sS'26:117'
p44
L80L
sS'22:56'
p45
L64L
sS'18:50'
p46
L65L
sS'32:73'
p47
L65L
sS'10:63'
p48
L66L
sS'13:47'
p49
L64L
sS'17:48'
p50
L65L
sS'27:88'
p51
L74L
sS'54:125'
p52
L83L
sS'5:43'
p53
L66L
sS'1:13'
p54
L57L
sS'23:76'
p55
L68L
sS'2:17'
p56
L57L
sS'3:8'
p57
L59L
sS'2:14'
p58
L61L
sS'8:59'
p59
L64L
sS'7:15'
p60
L59L
sS'8:70'
p61
L65L
sS'14:73'
p62
L65L
sS'14:72'
p63
L65L
sS'9:61'
p64
L67L
sS'61:124'
p65
L82L
s.