(dp0
S'7:54'
p1
L32L
sS'13:38'
p2
L30L
sS'17:40'
p3
L32L
sS'37:82'
p4
L35L
sS'16:32'
p5
L31L
sS'10:55'
p6
L31L
sS'39:118'
p7
L45L
sS'14:60'
p8
L32L
sS'9:36'
p9
L32L
sS'18:49'
p10
L31L
sS'3:18'
p11
L27L
sS'3:19'
p12
L29L
sS'20:73'
p13
L34L
sS'3:12'
p14
L30L
sS'28:124'
p15
L43L
sS'21:90'
p16
L36L
sS'1:4'
p17
L38L
sS'1:5'
p18
L36L
sS'1:6'
p19
L35L
sS'1:7'
p20
L31L
sS'17:45'
p21
L32L
sS'10:47'
p22
L32L
sS'10:45'
p23
L30L
sS'36:127'
p24
L43L
sS'4:46'
p25
L30L
sS'18:76'
p26
L33L
sS'21:62'
p27
L32L
sS'5:24'
p28
L32L
sS'22:70'
p29
L34L
sS'2:17'
p30
L29L
sS'9:20'
p31
L29L
sS'15:51'
p32
L32L
sS'7:70'
p33
L35L
sS'21:81'
p34
L33L
sS'22:45'
p35
L30L
sS'30:93'
p36
L38L
sS'6:16'
p37
L28L
sS'6:13'
p38
L33L
sS'31:66'
p39
L33L
sS'5:17'
p40
L32L
sS'5:11'
p41
L31L
sS'8:40'
p42
L29L
sS'8:41'
p43
L31L
sS'3:34'
p44
L32L
sS'6:20'
p45
L30L
sS'3:25'
p46
L32L
sS'32:74'
p47
L34L
sS'3:23'
p48
L29L
sS'4:21'
p49
L29L
sS'6:31'
p50
L32L
sS'6:33'
p51
L31L
sS'24:55'
p52
L33L
sS'24:51'
p53
L32L
sS'26:67'
p54
L33L
sS'14:29'
p55
L32L
sS'18:117'
p56
L42L
sS'18:110'
p57
L40L
sS'43:89'
p58
L35L
sS'15:40'
p59
L30L
sS'15:43'
p60
L30L
sS'7:66'
p61
L32L
sS'8:20'
p62
L29L
sS'6:40'
p63
L31L
sS'37:112'
p64
L42L
sS'48:109'
p65
L41L
sS'6:45'
p66
L32L
sS'11:74'
p67
L35L
sS'13:40'
p68
L31L
sS'59:128'
p69
L41L
sS'19:113'
p70
L42L
sS'1:10'
p71
L30L
sS'2:24'
p72
L30L
sS'11:104'
p73
L40L
sS'33:92'
p74
L36L
sS'10:85'
p75
L37L
sS'7:18'
p76
L26L
sS'14:57'
p77
L32L
sS'8:30'
p78
L30L
sS'13:54'
p79
L34L
sS'12:60'
p80
L34L
sS'28:76'
p81
L32L
sS'23:56'
p82
L33L
sS'30:101'
p83
L38L
sS'47:124'
p84
L43L
sS'10:32'
p85
L33L
sS'38:107'
p86
L41L
sS'33:84'
p87
L32L
sS'9:58'
p88
L33L
sS'20:50'
p89
L33L
sS'5:59'
p90
L34L
sS'20:54'
p91
L31L
sS'44:124'
p92
L43L
sS'10:36'
p93
L31L
sS'20:58'
p94
L35L
sS'5:51'
p95
L33L
sS'4:12'
p96
L32L
sS'26:55'
p97
L32L
sS'37:75'
p98
L33L
sS'38:79'
p99
L34L
sS'6:63'
p100
L31L
sS'10:27'
p101
L32L
sS'7:41'
p102
L29L
sS'10:22'
p103
L28L
sS'38:88'
p104
L35L
sS'8:19'
p105
L30L
sS'23:50'
p106
L33L
sS'5:48'
p107
L30L
sS'54:109'
p108
L39L
sS'18:56'
p109
L32L
s.