(dp0
S'13:32'
p1
L102L
sS'42:112'
p2
L154L
sS'27:56'
p3
L113L
sS'13:80'
p4
L103L
sS'2:15'
p5
L76L
sS'7:52'
p6
L83L
sS'7:53'
p7
L87L
sS'10:54'
p8
L99L
sS'26:123'
p9
L131L
sS'10:58'
p10
L104L
sS'14:106'
p11
L97L
sS'22:69'
p12
L116L
sS'54:117'
p13
L149L
sS'12:109'
p14
L104L
sS'5:36'
p15
L86L
sS'14:63'
p16
L96L
sS'22:63'
p17
L129L
sS'17:71'
p18
L117L
sS'48:127'
p19
L165L
sS'18:49'
p20
L101L
sS'8:60'
p21
L93L
sS'9:31'
p22
L91L
sS'8:62'
p23
L106L
sS'3:15'
p24
L77L
sS'7:23'
p25
L91L
sS'3:17'
p26
L79L
sS'18:46'
p27
L106L
sS'3:11'
p28
L84L
sS'3:12'
p29
L92L
sS'7:26'
p30
L93L
sS'1:8'
p31
L73L
sS'1:9'
p32
L75L
sS'42:89'
p33
L133L
sS'5:22'
p34
L89L
sS'35:125'
p35
L153L
sS'1:4'
p36
L90L
sS'1:5'
p37
L86L
sS'40:118'
p38
L138L
sS'37:91'
p39
L139L
sS'10:43'
p40
L100L
sS'10:40'
p41
L101L
sS'25:52'
p42
L112L
sS'12:38'
p43
L94L
sS'17:40'
p44
L100L
sS'32:102'
p45
L131L
sS'12:31'
p46
L89L
sS'29:90'
p47
L128L
sS'4:44'
p48
L92L
sS'21:60'
p49
L113L
sS'4:41'
p50
L77L
sS'12:113'
p51
L99L
sS'2:12'
p52
L80L
sS'2:11'
p53
L77L
sS'5:24'
p54
L80L
sS'21:68'
p55
L113L
sS'8:69'
p56
L82L
sS'22:74'
p57
L113L
sS'15:125'
p58
L94L
sS'35:85'
p59
L123L
sS'7:51'
p60
L86L
sS'2:10'
p61
L81L
sS'7:73'
p62
L99L
sS'7:70'
p63
L105L
sS'40:109'
p64
L142L
sS'42:93'
p65
L138L
sS'4:14'
p66
L83L
sS'23:73'
p67
L117L
sS'10:79'
p68
L97L
sS'17:57'
p69
L104L
sS'13:98'
p70
L131L
sS'30:92'
p71
L133L
sS'10:71'
p72
L109L
sS'2:19'
p73
L76L
sS'15:110'
p74
L105L
sS'18:69'
p75
L111L
sS'9:96'
p76
L119L
sS'8:39'
p77
L75L
sS'16:99'
p78
L109L
sS'9:95'
p79
L100L
sS'3:39'
p80
L89L
sS'3:33'
p81
L87L
sS'2:20'
p82
L74L
sS'8:33'
p83
L94L
sS'45:99'
p84
L154L
sS'11:50'
p85
L104L
sS'10:62'
p86
L92L
sS'39:125'
p87
L148L
sS'20:128'
p88
L100L
sS'3:24'
p89
L79L
sS'3:21'
p90
L78L
sS'3:23'
p91
L78L
sS'39:86'
p92
L134L
sS'2:21'
p93
L80L
sS'27:101'
p94
L116L
sS'4:25'
p95
L81L
sS'4:21'
p96
L86L
sS'4:22'
p97
L81L
sS'4:23'
p98
L84L
sS'8:50'
p99
L89L
sS'6:34'
p100
L87L
sS'6:30'
p101
L85L
sS'6:39'
p102
L93L
sS'24:57'
p103
L107L
sS'43:128'
p104
L145L
sS'24:53'
p105
L109L
sS'35:75'
p106
L133L
sS'30:128'
p107
L118L
sS'25:66'
p108
L114L
sS'27:93'
p109
L133L
sS'19:88'
p110
L108L
sS'43:87'
p111
L130L
sS'43:88'
p112
L130L
sS'20:120'
p113
L104L
sS'4:36'
p114
L82L
sS'25:71'
p115
L119L
sS'4:31'
p116
L84L
sS'6:25'
p117
L82L
sS'4:39'
p118
L93L
sS'9:77'
p119
L97L
sS'4:38'
p120
L87L
sS'6:44'
p121
L103L
sS'10:104'
p122
L100L
sS'7:77'
p123
L89L
sS'3:9'
p124
L85L
sS'24:66'
p125
L110L
sS'11:75'
p126
L108L
sS'3:16'
p127
L76L
sS'13:45'
p128
L95L
sS'20:119'
p129
L110L
sS'1:12'
p130
L72L
sS'3:10'
p131
L88L
sS'1:10'
p132
L74L
sS'3:22'
p133
L77L
sS'30:66'
p134
L128L
sS'1:17'
p135
L75L
sS'1:14'
p136
L78L
sS'1:15'
p137
L76L
sS'15:50'
p138
L102L
sS'8:38'
p139
L91L
sS'7:27'
p140
L83L
sS'10:80'
p141
L89L
sS'7:17'
p142
L90L
sS'20:49'
p143
L110L
sS'14:54'
p144
L98L
sS'8:27'
p145
L80L
sS'46:125'
p146
L157L
sS'9:66'
p147
L97L
sS'6:51'
p148
L99L
sS'6:56'
p149
L97L
sS'29:79'
p150
L120L
sS'12:29'
p151
L99L
sS'58:128'
p152
L174L
sS'17:99'
p153
L114L
sS'6:16'
p154
L94L
sS'29:124'
p155
L152L
sS'8:83'
p156
L92L
sS'8:81'
p157
L97L
sS'12:123'
p158
L113L
sS'12:125'
p159
L98L
sS'23:67'
p160
L115L
sS'12:128'
p161
L98L
sS'11:37'
p162
L90L
sS'10:37'
p163
L91L
sS'16:56'
p164
L103L
sS'2:7'
p165
L80L
sS'2:6'
p166
L98L
sS'2:5'
p167
L96L
sS'4:15'
p168
L80L
sS'15:66'
p169
L113L
sS'5:50'
p170
L100L
sS'5:51'
p171
L95L
sS'5:56'
p172
L95L
sS'7:45'
p173
L96L
sS'2:9'
p174
L83L
sS'8:58'
p175
L95L
sS'38:76'
p176
L140L
sS'7:43'
p177
L95L
sS'12:54'
p178
L100L
sS'10:24'
p179
L87L
sS'1:6'
p180
L86L
sS'36:105'
p181
L134L
sS'1:7'
p182
L76L
sS'16:48'
p183
L97L
sS'9:63'
p184
L103L
sS'9:43'
p185
L97L
sS'9:42'
p186
L96L
sS'5:43'
p187
L92L
sS'20:63'
p188
L115L
sS'23:50'
p189
L114L
sS'24:112'
p190
L100L
sS'18:58'
p191
L101L
sS'11:83'
p192
L97L
sS'7:36'
p193
L85L
sS'11:42'
p194
L93L
sS'10:31'
p195
L89L
s.