(dp0
S'13:54'
p1
L186L
sS'45:106'
p2
L251L
sS'33:113'
p3
L191L
sS'6:54'
p4
L137L
sS'7:74'
p5
L143L
sS'2:16'
p6
L137L
sS'11:45'
p7
L173L
sS'36:110'
p8
L257L
sS'11:61'
p9
L171L
sS'52:122'
p10
L279L
sS'24:105'
p11
L154L
sS'8:24'
p12
L150L
sS'17:59'
p13
L193L
sS'16:38'
p14
L178L
sS'22:80'
p15
L214L
sS'33:67'
p16
L200L
sS'10:72'
p17
L166L
sS'31:64'
p18
L194L
sS'9:54'
p19
L167L
sS'36:95'
p20
L230L
sS'3:31'
p21
L129L
sS'38:85'
p22
L214L
sS'13:108'
p23
L174L
sS'24:100'
p24
L239L
sS'6:22'
p25
L147L
sS'10:36'
p26
L162L
sS'38:82'
p27
L226L
sS'30:76'
p28
L219L
sS'4:9'
p29
L160L
sS'5:59'
p30
L150L
sS'3:18'
p31
L136L
sS'3:19'
p32
L136L
sS'35:94'
p33
L233L
sS'5:24'
p34
L139L
sS'7:25'
p35
L147L
sS'15:62'
p36
L190L
sS'3:34'
p37
L129L
sS'1:8'
p38
L127L
sS'1:9'
p39
L129L
sS'12:128'
p40
L168L
sS'39:128'
p41
L206L
sS'13:29'
p42
L165L
sS'6:65'
p43
L132L
sS'1:4'
p44
L164L
sS'9:98'
p45
L151L
sS'28:128'
p46
L196L
sS'41:89'
p47
L237L
sS'10:27'
p48
L147L
sS'10:47'
p49
L162L
sS'10:22'
p50
L155L
sS'10:23'
p51
L159L
sS'10:60'
p52
L145L
sS'34:116'
p53
L195L
sS'50:109'
p54
L271L
sS'12:31'
p55
L157L
sS'20:99'
p56
L173L
sS'5:23'
p57
L143L
sS'38:90'
p58
L231L
sS'46:107'
p59
L246L
sS'23:78'
p60
L190L
sS'32:100'
p61
L232L
sS'49:110'
p62
L253L
sS'12:38'
p63
L159L
sS'59:124'
p64
L283L
sS'1:10'
p65
L130L
sS'20:113'
p66
L153L
sS'38:117'
p67
L226L
sS'10:53'
p68
L185L
sS'16:60'
p69
L186L
sS'8:36'
p70
L158L
sS'18:59'
p71
L195L
sS'15:51'
p72
L182L
sS'15:56'
p73
L182L
sS'16:67'
p74
L196L
sS'8:55'
p75
L146L
sS'23:56'
p76
L194L
sS'4:29'
p77
L142L
sS'8:53'
p78
L158L
sS'9:28'
p79
L156L
s.