(dp0
S'31:108'
p1
L4235L
sS'13:30'
p2
L4461L
sS'37:88'
p3
L4349L
sS'25:106'
p4
L4144L
sS'14:93'
p5
L4176L
sS'13:39'
p6
L4321L
sS'14:94'
p7
L4151L
sS'7:52'
p8
L4250L
sS'52:125'
p9
L4257L
sS'36:116'
p10
L4204L
sS'26:121'
p11
L4224L
sS'9:59'
p12
L4207L
sS'22:68'
p13
L4259L
sS'22:65'
p14
L4243L
sS'18:128'
p15
L4166L
sS'21:111'
p16
L4153L
sS'12:103'
p17
L4125L
sS'24:82'
p18
L4246L
sS'19:116'
p19
L4158L
sS'6:16'
p20
L5147L
sS'20:71'
p21
L4240L
sS'7:23'
p22
L4601L
sS'7:22'
p23
L4634L
sS'3:10'
p24
L5910L
sS'3:11'
p25
L5787L
sS'48:128'
p26
L4246L
sS'1:9'
p27
L6440L
sS'11:33'
p28
L4360L
sS'35:128'
p29
L4224L
sS'21:90'
p30
L4228L
sS'7:45'
p31
L4265L
sS'1:4'
p32
L11364L
sS'1:5'
p33
L9273L
sS'1:6'
p34
L8075L
sS'37:91'
p35
L4250L
sS'10:40'
p36
L4318L
sS'13:84'
p37
L4191L
sS'36:128'
p38
L4239L
sS'25:100'
p39
L4158L
sS'10:44'
p40
L4241L
sS'25:58'
p41
L4287L
sS'19:52'
p42
L4251L
sS'14:114'
p43
L4152L
sS'20:99'
p44
L4186L
sS'5:23'
p45
L4600L
sS'32:103'
p46
L4215L
sS'21:62'
p47
L4198L
sS'29:98'
p48
L4293L
sS'12:117'
p49
L4127L
sS'12:128'
p50
L4143L
sS'14:109'
p51
L4154L
sS'9:26'
p52
L4550L
sS'10:52'
p53
L4240L
sS'1:13'
p54
L5473L
sS'16:103'
p55
L4149L
sS'25:128'
p56
L4119L
sS'44:93'
p57
L4298L
sS'7:76'
p58
L4178L
sS'51:128'
p59
L4330L
sS'21:84'
p60
L4231L
sS'11:44'
p61
L4298L
sS'2:24'
p62
L4681L
sS'2:25'
p63
L4586L
sS'43:104'
p64
L4250L
sS'17:57'
p65
L4246L
sS'12:27'
p66
L4525L
sS'43:109'
p67
L4280L
sS'10:73'
p68
L4185L
sS'19:65'
p69
L4223L
sS'10:70'
p70
L4196L
sS'16:96'
p71
L4176L
sS'14:101'
p72
L4127L
sS'36:92'
p73
L4281L
sS'16:92'
p74
L4222L
sS'36:96'
p75
L4279L
sS'5:16'
p76
L5091L
sS'15:113'
p77
L4184L
sS'26:128'
p78
L4114L
sS'33:128'
p79
L4218L
sS'24:91'
p80
L4213L
sS'23:128'
p81
L4158L
sS'23:124'
p82
L4190L
sS'9:19'
p83
L4896L
sS'22:128'
p84
L4154L
sS'19:77'
p85
L4215L
sS'25:93'
p86
L4275L
sS'30:82'
p87
L4256L
sS'28:107'
p88
L4282L
sS'51:119'
p89
L4341L
sS'28:105'
p90
L4217L
sS'17:110'
p91
L4176L
sS'42:128'
p92
L4306L
sS'30:128'
p93
L4190L
sS'39:128'
p94
L4250L
sS'19:68'
p95
L4198L
sS'16:123'
p96
L4118L
sS'25:78'
p97
L4263L
sS'22:58'
p98
L4228L
sS'6:21'
p99
L4716L
sS'52:113'
p100
L4329L
sS'14:57'
p101
L4240L
sS'15:59'
p102
L4206L
sS'15:34'
p103
L4431L
sS'31:122'
p104
L4192L
sS'4:28'
p105
L4472L
sS'40:92'
p106
L4294L
sS'15:80'
p107
L4204L
sS'12:62'
p108
L4192L
sS'37:127'
p109
L4233L
sS'20:121'
p110
L4154L
sS'40:123'
p111
L4170L
sS'33:69'
p112
L4287L
sS'22:102'
p113
L4182L
sS'41:98'
p114
L4316L
sS'13:51'
p115
L4193L
sS'29:76'
p116
L4229L
sS'36:112'
p117
L4207L
sS'18:114'
p118
L4165L
sS'27:91'
p119
L4242L
sS'23:84'
p120
L4291L
sS'20:128'
p121
L4225L
sS'9:98'
p122
L4185L
sS'38:128'
p123
L4317L
sS'18:119'
p124
L4171L
sS'35:122'
p125
L4127L
sS'20:122'
p126
L4178L
sS'9:78'
p127
L4148L
sS'7:64'
p128
L4190L
sS'7:61'
p129
L4228L
sS'29:128'
p130
L4174L
sS'19:127'
p131
L4127L
sS'30:104'
p132
L4215L
sS'37:111'
p133
L4268L
sS'53:107'
p134
L4368L
sS'12:75'
p135
L4234L
sS'21:122'
p136
L4147L
sS'37:117'
p137
L4256L
sS'14:128'
p138
L4120L
sS'21:128'
p139
L4133L
sS'21:87'
p140
L4226L
sS'20:70'
p141
L4209L
sS'19:128'
p142
L4147L
sS'11:78'
p143
L4170L
sS'26:72'
p144
L4292L
sS'47:115'
p145
L4306L
sS'18:121'
p146
L4159L
sS'19:98'
p147
L4160L
sS'18:124'
p148
L4115L
sS'18:126'
p149
L4120L
sS'1:12'
p150
L5704L
sS'9:38'
p151
L4346L
sS'20:112'
p152
L4160L
sS'30:66'
p153
L4213L
sS'16:90'
p154
L4220L
sS'20:116'
p155
L4125L
sS'28:128'
p156
L4164L
sS'46:128'
p157
L4238L
sS'25:96'
p158
L4180L
sS'7:16'
p159
L5084L
sS'8:32'
p160
L4451L
sS'15:58'
p161
L4219L
sS'18:45'
p162
L4287L
sS'9:66'
p163
L4193L
sS'6:53'
p164
L4245L
sS'27:73'
p165
L4234L
sS'24:117'
p166
L4225L
sS'6:57'
p167
L4220L
sS'6:56'
p168
L4220L
sS'27:77'
p169
L4364L
sS'37:105'
p170
L4213L
sS'13:97'
p171
L4153L
sS'37:103'
p172
L4285L
sS'26:101'
p173
L4145L
sS'20:103'
p174
L4137L
sS'19:62'
p175
L4247L
sS'8:87'
p176
L4150L
sS'22:127'
p177
L4111L
sS'24:70'
p178
L4208L
sS'46:114'
p179
L4227L
sS'46:115'
p180
L4300L
sS'12:120'
p181
L4149L
sS'46:111'
p182
L4297L
sS'47:128'
p183
L4270L
sS'24:128'
p184
L4144L
sS'10:31'
p185
L4425L
sS'22:99'
p186
L4217L
sS'10:34'
p187
L4399L
sS'2:7'
p188
L6841L
sS'34:128'
p189
L4206L
sS'44:125'
p190
L4197L
sS'28:110'
p191
L4174L
sS'21:50'
p192
L4255L
sS'2:9'
p193
L6192L
sS'5:55'
p194
L4214L
sS'31:119'
p195
L4247L
sS'16:128'
p196
L4130L
sS'38:77'
p197
L4278L
sS'6:66'
p198
L4180L
sS'31:113'
p199
L4231L
sS'6:65'
p200
L4191L
sS'6:63'
p201
L4208L
sS'6:60'
p202
L4218L
sS'6:61'
p203
L4195L
sS'16:94'
p204
L4177L
sS'50:128'
p205
L4249L
sS'25:113'
p206
L4238L
sS'50:121'
p207
L4235L
sS'50:122'
p208
L4259L
sS'9:53'
p209
L4201L
sS'5:46'
p210
L4240L
sS'18:67'
p211
L4235L
sS'18:54'
p212
L4258L
sS'17:127'
p213
L4158L
sS'13:128'
p214
L4142L
sS'7:38'
p215
L4383L
sS'22:75'
p216
L4233L
sS'16:122'
p217
L4144L
sS'20:62'
p218
L4263L
sS'17:128'
p219
L4206L
s.