(dp0
S'13:31'
p1
L204L
sS'7:58'
p2
L201L
sS'7:59'
p3
L199L
sS'28:98'
p4
L313L
sS'7:56'
p5
L209L
sS'7:50'
p6
L193L
sS'2:15'
p7
L155L
sS'10:51'
p8
L246L
sS'20:87'
p9
L261L
sS'16:35'
p10
L252L
sS'15:93'
p11
L284L
sS'10:56'
p12
L198L
sS'19:44'
p13
L248L
sS'5:53'
p14
L177L
sS'5:35'
p15
L196L
sS'5:37'
p16
L185L
sS'24:103'
p17
L248L
sS'24:106'
p18
L245L
sS'7:28'
p19
L193L
sS'5:59'
p20
L196L
sS'3:18'
p21
L170L
sS'3:15'
p22
L167L
sS'7:22'
p23
L195L
sS'3:10'
p24
L176L
sS'3:11'
p25
L183L
sS'20:76'
p26
L276L
sS'1:8'
p27
L158L
sS'1:9'
p28
L169L
sS'48:97'
p29
L329L
sS'11:34'
p30
L223L
sS'42:87'
p31
L321L
sS'1:4'
p32
L209L
sS'1:5'
p33
L195L
sS'1:6'
p34
L188L
sS'1:7'
p35
L158L
sS'13:87'
p36
L195L
sS'10:40'
p37
L201L
sS'2:18'
p38
L169L
sS'4:44'
p39
L200L
sS'2:24'
p40
L176L
sS'3:33'
p41
L173L
sS'4:42'
p42
L223L
sS'14:115'
p43
L218L
sS'12:32'
p44
L213L
sS'5:23'
p45
L201L
sS'4:47'
p46
L178L
sS'2:19'
p47
L170L
sS'4:45'
p48
L184L
sS'29:95'
p49
L325L
sS'5:25'
p50
L179L
sS'29:97'
p51
L320L
sS'4:41'
p52
L178L
sS'2:12'
p53
L169L
sS'2:11'
p54
L169L
sS'2:10'
p55
L178L
sS'2:17'
p56
L159L
sS'2:16'
p57
L172L
sS'4:48'
p58
L183L
sS'2:14'
p59
L170L
sS'23:74'
p60
L284L
sS'5:55'
p61
L186L
sS'5:21'
p62
L180L
sS'40:106'
p63
L365L
sS'7:72'
p64
L217L
sS'7:70'
p65
L198L
sS'7:71'
p66
L183L
sS'62:127'
p67
L396L
sS'21:87'
p68
L273L
sS'7:74'
p69
L188L
sS'2:26'
p70
L155L
sS'22:46'
p71
L259L
sS'60:123'
p72
L419L
sS'2:25'
p73
L157L
sS'2:22'
p74
L168L
sS'2:23'
p75
L186L
sS'2:20'
p76
L173L
sS'12:29'
p77
L211L
sS'19:66'
p78
L272L
sS'2:28'
p79
L154L
sS'2:29'
p80
L155L
sS'31:62'
p81
L271L
sS'5:14'
p82
L170L
sS'3:39'
p83
L170L
sS'12:77'
p84
L197L
sS'3:32'
p85
L159L
sS'49:101'
p86
L355L
sS'3:30'
p87
L155L
sS'3:31'
p88
L162L
sS'3:36'
p89
L158L
sS'3:34'
p90
L155L
sS'3:35'
p91
L165L
sS'17:111'
p92
L258L
sS'9:85'
p93
L188L
sS'11:54'
p94
L253L
sS'22:54'
p95
L247L
sS'8:32'
p96
L197L
sS'6:21'
p97
L190L
sS'25:72'
p98
L290L
sS'6:25'
p99
L198L
sS'3:20'
p100
L185L
sS'3:22'
p101
L182L
sS'43:99'
p102
L350L
sS'15:42'
p103
L240L
sS'18:91'
p104
L231L
sS'6:28'
p105
L193L
sS'14:31'
p106
L232L
sS'4:20'
p107
L184L
sS'4:21'
p108
L180L
sS'15:33'
p109
L230L
sS'31:128'
p110
L242L
sS'4:28'
p111
L189L
sS'29:58'
p112
L262L
sS'48:110'
p113
L354L
sS'7:79'
p114
L190L
sS'11:65'
p115
L217L
sS'11:69'
p116
L188L
sS'41:91'
p117
L326L
sS'1:13'
p118
L162L
sS'14:29'
p119
L212L
sS'23:88'
p120
L215L
sS'30:75'
p121
L294L
sS'9:88'
p122
L199L
sS'4:37'
p123
L163L
sS'4:36'
p124
L169L
sS'13:60'
p125
L247L
sS'4:34'
p126
L187L
sS'15:49'
p127
L247L
sS'7:69'
p128
L180L
sS'5:58'
p129
L202L
sS'8:27'
p130
L192L
sS'6:40'
p131
L170L
sS'33:76'
p132
L300L
sS'6:46'
p133
L223L
sS'62:126'
p134
L399L
sS'41:88'
p135
L324L
sS'3:8'
p136
L182L
sS'24:67'
p137
L276L
sS'17:87'
p138
L221L
sS'3:7'
p139
L220L
sS'41:128'
p140
L279L
sS'13:44'
p141
L253L
sS'1:18'
p142
L160L
sS'1:19'
p143
L153L
sS'2:27'
p144
L152L
sS'1:12'
p145
L157L
sS'27:85'
p146
L312L
sS'1:10'
p147
L151L
sS'1:11'
p148
L155L
sS'1:16'
p149
L152L
sS'1:17'
p150
L148L
sS'1:14'
p151
L153L
sS'1:15'
p152
L149L
sS'46:128'
p153
L389L
sS'24:78'
p154
L284L
sS'14:57'
p155
L234L
sS'8:30'
p156
L196L
sS'14:53'
p157
L243L
sS'9:64'
p158
L197L
sS'2:21'
p159
L176L
sS'52:112'
p160
L368L
sS'50:112'
p161
L367L
sS'50:115'
p162
L367L
sS'8:86'
p163
L183L
sS'8:84'
p164
L174L
sS'8:85'
p165
L179L
sS'8:80'
p166
L186L
sS'8:81'
p167
L195L
sS'38:109'
p168
L330L
sS'16:50'
p169
L249L
sS'23:62'
p170
L264L
sS'2:7'
p171
L183L
sS'2:6'
p172
L217L
sS'2:5'
p173
L200L
sS'2:4'
p174
L235L
sS'14:48'
p175
L247L
sS'14:49'
p176
L222L
sS'4:14'
p177
L174L
sS'5:50'
p178
L243L
sS'20:108'
p179
L219L
sS'5:56'
p180
L181L
sS'5:57'
p181
L184L
sS'34:68'
p182
L291L
sS'2:8'
p183
L200L
sS'5:28'
p184
L189L
sS'26:52'
p185
L280L
sS'31:112'
p186
L238L
sS'6:64'
p187
L180L
sS'6:65'
p188
L173L
sS'6:63'
p189
L197L
sS'10:25'
p190
L201L
sS'10:26'
p191
L210L
sS'16:47'
p192
L234L
sS'10:21'
p193
L209L
sS'41:108'
p194
L367L
sS'7:34'
p195
L207L
sS'9:53'
p196
L192L
sS'9:40'
p197
L221L
sS'17:61'
p198
L264L
sS'23:50'
p199
L268L
sS'38:117'
p200
L304L
sS'18:50'
p201
L245L
sS'18:53'
p202
L249L
sS'14:74'
p203
L221L
s.