(dp0
S'12:48'
p1
L1148L
sS'13:34'
p2
L1194L
sS'12:40'
p3
L1169L
sS'13:39'
p4
L1175L
sS'7:51'
p5
L1156L
sS'28:128'
p6
L1145L
sS'12:47'
p7
L1156L
sS'20:87'
p8
L1166L
sS'6:66'
p9
L1139L
sS'9:90'
p10
L1137L
sS'19:45'
p11
L1186L
sS'12:109'
p12
L1140L
sS'24:103'
p13
L1137L
sS'5:58'
p14
L1141L
sS'24:82'
p15
L1161L
sS'3:14'
p16
L1411L
sS'3:16'
p17
L1381L
sS'18:77'
p18
L1151L
sS'7:57'
p19
L1141L
sS'35:128'
p20
L1166L
sS'14:83'
p21
L1133L
sS'1:4'
p22
L3160L
sS'21:94'
p23
L1163L
sS'7:41'
p24
L1178L
sS'25:103'
p25
L1141L
sS'17:47'
p26
L1170L
sS'10:43'
p27
L1151L
sS'10:41'
p28
L1165L
sS'19:58'
p29
L1150L
sS'14:115'
p30
L1136L
sS'12:32'
p31
L1219L
sS'5:23'
p32
L1276L
sS'11:63'
p33
L1146L
sS'33:122'
p34
L1161L
sS'29:96'
p35
L1157L
sS'32:108'
p36
L1155L
sS'15:122'
p37
L1156L
sS'16:108'
p38
L1128L
sS'9:97'
p39
L1134L
sS'8:73'
p40
L1139L
sS'5:55'
p41
L1149L
sS'25:128'
p42
L1148L
sS'14:125'
p43
L1184L
sS'14:126'
p44
L1143L
sS'7:79'
p45
L1138L
sS'40:101'
p46
L1168L
sS'7:73'
p47
L1137L
sS'44:116'
p48
L1167L
sS'7:77'
p49
L1130L
sS'13:90'
p50
L1140L
sS'13:113'
p51
L1142L
sS'13:111'
p52
L1148L
sS'13:95'
p53
L1142L
sS'34:120'
p54
L1153L
sS'12:27'
p55
L1220L
sS'6:14'
p56
L1442L
sS'19:66'
p57
L1155L
sS'32:117'
p58
L1135L
sS'5:16'
p59
L1373L
sS'5:14'
p60
L1405L
sS'9:96'
p61
L1131L
sS'25:97'
p62
L1144L
sS'9:94'
p63
L1136L
sS'9:95'
p64
L1126L
sS'33:128'
p65
L1155L
sS'22:124'
p66
L1152L
sS'23:128'
p67
L1140L
sS'40:84'
p68
L1185L
sS'23:127'
p69
L1145L
sS'3:31'
p70
L1216L
sS'3:36'
p71
L1181L
sS'22:128'
p72
L1139L
sS'30:87'
p73
L1156L
sS'43:111'
p74
L1164L
sS'11:54'
p75
L1147L
sS'6:29'
p76
L1214L
sS'15:100'
p77
L1156L
sS'25:76'
p78
L1160L
sS'10:62'
p79
L1152L
sS'6:61'
p80
L1141L
sS'13:101'
p81
L1164L
sS'3:27'
p82
L1227L
sS'9:60'
p83
L1141L
sS'32:71'
p84
L1175L
sS'18:94'
p85
L1138L
sS'10:26'
p86
L1229L
sS'12:79'
p87
L1147L
sS'12:104'
p88
L1144L
sS'43:112'
p89
L1160L
sS'25:113'
p90
L1137L
sS'15:80'
p91
L1143L
sS'6:36'
p92
L1172L
sS'37:121'
p93
L1169L
sS'17:107'
p94
L1135L
sS'12:60'
p95
L1139L
sS'21:119'
p96
L1155L
sS'11:112'
p97
L1127L
sS'39:99'
p98
L1161L
sS'11:113'
p99
L1132L
sS'11:118'
p100
L1130L
sS'11:119'
p101
L1129L
sS'18:113'
p102
L1167L
sS'27:94'
p103
L1171L
sS'11:114'
p104
L1133L
sS'11:115'
p105
L1134L
sS'11:116'
p106
L1136L
sS'11:110'
p107
L1127L
sS'11:111'
p108
L1133L
sS'16:73'
p109
L1144L
sS'27:114'
p110
L1144L
sS'8:29'
p111
L1202L
sS'2:8'
p112
L1756L
sS'23:101'
p113
L1158L
sS'9:73'
p114
L1183L
sS'8:24'
p115
L1268L
sS'7:68'
p116
L1153L
sS'6:43'
p117
L1160L
sS'30:100'
p118
L1183L
sS'12:74'
p119
L1144L
sS'10:108'
p120
L1135L
sS'12:92'
p121
L1135L
sS'10:106'
p122
L1150L
sS'10:107'
p123
L1131L
sS'10:105'
p124
L1131L
sS'3:8'
p125
L1769L
sS'13:128'
p126
L1143L
sS'50:105'
p127
L1170L
sS'26:77'
p128
L1166L
sS'13:127'
p129
L1140L
sS'11:98'
p130
L1149L
sS'3:23'
p131
L1262L
sS'18:128'
p132
L1136L
sS'16:64'
p133
L1142L
sS'16:60'
p134
L1138L
sS'10:86'
p135
L1129L
sS'10:84'
p136
L1131L
sS'34:125'
p137
L1159L
sS'15:56'
p138
L1146L
sS'9:61'
p139
L1141L
sS'14:56'
p140
L1146L
sS'28:70'
p141
L1172L
sS'17:95'
p142
L1158L
sS'7:76'
p143
L1127L
sS'17:97'
p144
L1134L
sS'17:90'
p145
L1138L
sS'6:56'
p146
L1160L
sS'30:119'
p147
L1162L
sS'35:118'
p148
L1163L
sS'14:89'
p149
L1141L
sS'20:102'
p150
L1156L
sS'8:88'
p151
L1127L
sS'8:87'
p152
L1138L
sS'8:83'
p153
L1132L
sS'20:109'
p154
L1148L
sS'8:81'
p155
L1133L
sS'12:122'
p156
L1142L
sS'19:102'
p157
L1145L
sS'12:120'
p158
L1142L
sS'24:124'
p159
L1129L
sS'12:124'
p160
L1139L
sS'12:125'
p161
L1128L
sS'24:128'
p162
L1135L
sS'12:128'
p163
L1137L
sS'10:109'
p164
L1125L
sS'20:53'
p165
L1154L
sS'44:121'
p166
L1183L
sS'8:80'
p167
L1132L
sS'15:69'
p168
L1144L
sS'5:53'
p169
L1143L
sS'5:56'
p170
L1139L
sS'4:12'
p171
L1509L
sS'38:77'
p172
L1207L
sS'12:123'
p173
L1144L
sS'22:105'
p174
L1158L
sS'12:56'
p175
L1143L
sS'18:78'
p176
L1143L
sS'48:99'
p177
L1171L
sS'16:44'
p178
L1184L
sS'16:46'
p179
L1171L
sS'14:84'
p180
L1139L
sS'41:108'
p181
L1164L
sS'16:48'
p182
L1156L
sS'12:127'
p183
L1142L
sS'9:47'
p184
L1147L
sS'24:117'
p185
L1154L
sS'5:49'
p186
L1149L
sS'17:89'
p187
L1139L
sS'33:95'
p188
L1179L
sS'16:128'
p189
L1135L
sS'17:120'
p190
L1138L
sS'16:126'
p191
L1133L
sS'11:88'
p192
L1133L
sS'7:34'
p193
L1204L
sS'16:51'
p194
L1150L
s.