(dp0
S'16:121'
p1
L3076L
sS'15:113'
p2
L3052L
sS'12:42'
p3
L3528L
sS'12:44'
p4
L3738L
sS'7:51'
p5
L3322L
sS'12:47'
p6
L3510L
sS'39:113'
p7
L3219L
sS'26:128'
p8
L3226L
sS'16:35'
p9
L4220L
sS'39:114'
p10
L3082L
sS'16:38'
p11
L3770L
sS'19:47'
p12
L3675L
sS'16:118'
p13
L3047L
sS'26:118'
p14
L3052L
sS'52:128'
p15
L3374L
sS'26:124'
p16
L3037L
sS'5:32'
p17
L4238L
sS'13:120'
p18
L3012L
sS'20:128'
p19
L3039L
sS'5:38'
p20
L3901L
sS'12:107'
p21
L3073L
sS'12:100'
p22
L3209L
sS'22:125'
p23
L3194L
sS'9:37'
p24
L4099L
sS'9:31'
p25
L3572L
sS'8:62'
p26
L3385L
sS'18:40'
p27
L3932L
sS'18:121'
p28
L3022L
sS'18:47'
p29
L3526L
sS'55:126'
p30
L3360L
sS'5:22'
p31
L4516L
sS'35:127'
p32
L3017L
sS'35:126'
p33
L3109L
sS'7:45'
p34
L3328L
sS'1:4'
p35
L23089L
sS'28:128'
p36
L3133L
sS'1:7'
p37
L9540L
sS'14:118'
p38
L3052L
sS'12:118'
p39
L3052L
sS'12:39'
p40
L3853L
sS'13:82'
p41
L3499L
sS'56:122'
p42
L3239L
sS'10:48'
p43
L3398L
sS'12:36'
p44
L3856L
sS'13:89'
p45
L3114L
sS'15:128'
p46
L3038L
sS'27:122'
p47
L3055L
sS'4:47'
p48
L3581L
sS'44:128'
p49
L3179L
sS'13:125'
p50
L3013L
sS'32:103'
p51
L3192L
sS'5:25'
p52
L4052L
sS'4:41'
p53
L4007L
sS'2:13'
p54
L5749L
sS'29:99'
p55
L3075L
sS'27:128'
p56
L3043L
sS'29:96'
p57
L3106L
sS'15:121'
p58
L3036L
sS'4:48'
p59
L3285L
sS'15:122'
p60
L3041L
sS'8:76'
p61
L3182L
sS'8:72'
p62
L3254L
sS'9:20'
p63
L4766L
sS'35:128'
p64
L3087L
sS'16:107'
p65
L3045L
sS'25:128'
p66
L3036L
sS'14:125'
p67
L3003L
sS'7:78'
p68
L3131L
sS'14:121'
p69
L3031L
sS'14:122'
p70
L3045L
sS'14:123'
p71
L3001L
sS'16:62'
p72
L3297L
sS'25:123'
p73
L3171L
sS'14:128'
p74
L3046L
sS'7:77'
p75
L3281L
sS'7:75'
p76
L3330L
sS'17:52'
p77
L3384L
sS'11:104'
p78
L3090L
sS'22:119'
p79
L3062L
sS'15:123'
p80
L3014L
sS'26:122'
p81
L3000L
sS'35:101'
p82
L3411L
sS'6:15'
p83
L5437L
sS'12:25'
p84
L4203L
sS'27:124'
p85
L3047L
sS'16:117'
p86
L3002L
sS'15:119'
p87
L3030L
sS'9:99'
p88
L3029L
sS'16:113'
p89
L3266L
sS'18:66'
p90
L3209L
sS'9:92'
p91
L3081L
sS'9:91'
p92
L3084L
sS'25:127'
p93
L3015L
sS'9:97'
p94
L3132L
sS'9:95'
p95
L3175L
sS'8:40'
p96
L3647L
sS'8:47'
p97
L3795L
sS'3:31'
p98
L3905L
sS'3:36'
p99
L4099L
sS'23:120'
p100
L3109L
sS'30:84'
p101
L3264L
sS'19:75'
p102
L3492L
sS'30:82'
p103
L3249L
sS'51:117'
p104
L3151L
sS'17:116'
p105
L3129L
sS'13:100'
p106
L3215L
sS'30:128'
p107
L3132L
sS'39:128'
p108
L3182L
sS'15:103'
p109
L3037L
sS'13:106'
p110
L3328L
sS'13:65'
p111
L3560L
sS'24:49'
p112
L3602L
sS'39:126'
p113
L3067L
sS'43:87'
p114
L3267L
sS'32:120'
p115
L3248L
sS'18:104'
p116
L3076L
sS'11:112'
p117
L3029L
sS'12:97'
p118
L3024L
sS'32:128'
p119
L3288L
sS'15:125'
p120
L2997L
sS'27:102'
p121
L3378L
sS'27:103'
p122
L3225L
sS'15:36'
p123
L4164L
sS'11:115'
p124
L3025L
sS'8:56'
p125
L3184L
sS'8:51'
p126
L3261L
sS'11:116'
p127
L3033L
sS'21:116'
p128
L3037L
sS'10:109'
p129
L3131L
sS'15:124'
p130
L3037L
sS'37:128'
p131
L3360L
sS'21:119'
p132
L3033L
sS'11:66'
p133
L3376L
sS'26:61'
p134
L3218L
sS'34:87'
p135
L3250L
sS'11:118'
p136
L3037L
sS'35:110'
p137
L3253L
sS'18:113'
p138
L3060L
sS'19:128'
p139
L3042L
sS'11:114'
p140
L3013L
sS'23:89'
p141
L3106L
sS'38:128'
p142
L3168L
sS'11:117'
p143
L3263L
sS'11:110'
p144
L3084L
sS'11:111'
p145
L3126L
sS'35:122'
p146
L3028L
sS'11:113'
p147
L3076L
sS'10:95'
p148
L3072L
sS'8:29'
p149
L4018L
sS'10:97'
p150
L3075L
sS'21:78'
p151
L3299L
sS'13:118'
p152
L3052L
sS'19:120'
p153
L3076L
sS'19:127'
p154
L3007L
sS'28:66'
p155
L3513L
sS'6:44'
p156
L3755L
sS'33:71'
p157
L3515L
sS'6:47'
p158
L3319L
sS'10:106'
p159
L3029L
sS'10:107'
p160
L3037L
sS'10:104'
p161
L3299L
sS'10:105'
p162
L3033L
sS'10:103'
p163
L3064L
sS'10:100'
p164
L3087L
sS'10:101'
p165
L3052L
sS'41:126'
p166
L3218L
sS'14:126'
p167
L3020L
sS'13:128'
p168
L3055L
sS'11:78'
p169
L3227L
sS'13:123'
p170
L3055L
sS'13:122'
p171
L3054L
sS'34:115'
p172
L3180L
sS'11:77'
p173
L3159L
sS'41:128'
p174
L3259L
sS'13:124'
p175
L3047L
sS'19:114'
p176
L3048L
sS'12:123'
p177
L2997L
sS'19:98'
p178
L3170L
sS'18:124'
p179
L3020L
sS'18:127'
p180
L3023L
sS'18:128'
p181
L3066L
sS'1:10'
p182
L7155L
sS'1:11'
p183
L7723L
sS'1:16'
p184
L6378L
sS'16:60'
p185
L3148L
sS'3:11'
p186
L7259L
sS'15:52'
p187
L3562L
sS'9:69'
p188
L3436L
sS'14:54'
p189
L3205L
sS'49:128'
p190
L3310L
sS'25:98'
p191
L3223L
sS'12:62'
p192
L3351L
sS'6:50'
p193
L3324L
sS'13:51'
p194
L3429L
sS'12:64'
p195
L3424L
sS'17:93'
p196
L3135L
sS'13:115'
p197
L3056L
sS'22:112'
p198
L3049L
sS'18:122'
p199
L3041L
sS'45:128'
p200
L3187L
sS'26:102'
p201
L3275L
sS'29:128'
p202
L3049L
sS'18:108'
p203
L3067L
sS'8:88'
p204
L3098L
sS'8:89'
p205
L3294L
sS'29:124'
p206
L3061L
sS'8:84'
p207
L3362L
sS'22:87'
p208
L3267L
sS'8:83'
p209
L3127L
sS'20:109'
p210
L3176L
sS'9:56'
p211
L3505L
sS'9:57'
p212
L3352L
sS'12:120'
p213
L2998L
sS'12:121'
p214
L3064L
sS'9:52'
p215
L3363L
sS'12:127'
p216
L3048L
sS'12:124'
p217
L2997L
sS'12:125'
p218
L3014L
sS'38:84'
p219
L3317L
sS'16:52'
p220
L3547L
sS'12:128'
p221
L3221L
sS'23:65'
p222
L3629L
sS'33:87'
p223
L3163L
sS'9:59'
p224
L3178L
sS'20:51'
p225
L3545L
sS'8:80'
p226
L3136L
sS'14:83'
p227
L3148L
sS'5:50'
p228
L3565L
sS'15:64'
p229
L3432L
sS'5:56'
p230
L3341L
sS'12:122'
p231
L3022L
sS'22:96'
p232
L3427L
sS'35:106'
p233
L3252L
sS'22:109'
p234
L3143L
sS'17:121'
p235
L3039L
sS'6:68'
p236
L3327L
sS'6:69'
p237
L3428L
sS'6:64'
p238
L3364L
sS'42:128'
p239
L3203L
sS'6:61'
p240
L3200L
sS'11:119'
p241
L2995L
sS'11:88'
p242
L3095L
sS'12:126'
p243
L3003L
sS'40:119'
p244
L3122L
sS'16:48'
p245
L3714L
sS'24:124'
p246
L3028L
sS'24:63'
p247
L3185L
sS'11:109'
p248
L3063L
sS'24:114'
p249
L3056L
sS'33:90'
p250
L3345L
sS'13:121'
p251
L3031L
sS'38:116'
p252
L3180L
sS'17:124'
p253
L3010L
sS'16:128'
p254
L3051L
sS'24:128'
p255
L3156L
sS'16:126'
p256
L3029L
sS'36:128'
p257
L3155L
sS'16:124'
p258
L3135L
sS'10:75'
p259
L3161L
sS'16:120'
p260
L3033L
sS'17:128'
p261
L3087L
s.