(dp0
S'31:109'
p1
L4418L
sS'13:34'
p2
L5164L
sS'12:41'
p3
L4740L
sS'28:94'
p4
L4418L
sS'41:121'
p5
L4349L
sS'20:87'
p6
L4162L
sS'26:128'
p7
L4271L
sS'15:93'
p8
L4358L
sS'16:38'
p9
L4939L
sS'5:33'
p10
L5349L
sS'5:35'
p11
L5250L
sS'30:117'
p12
L4344L
sS'24:81'
p13
L4244L
sS'21:79'
p14
L4474L
sS'49:124'
p15
L4399L
sS'9:38'
p16
L4830L
sS'37:87'
p17
L4433L
sS'42:85'
p18
L4535L
sS'1:4'
p19
L24005L
sS'7:41'
p20
L4834L
sS'1:7'
p21
L11564L
sS'56:128'
p22
L4452L
sS'12:119'
p23
L4099L
sS'5:27'
p24
L5320L
sS'18:72'
p25
L4531L
sS'5:29'
p26
L4924L
sS'2:15'
p27
L6602L
sS'24:92'
p28
L4362L
sS'29:101'
p29
L4378L
sS'9:20'
p30
L6060L
sS'21:91'
p31
L4380L
sS'15:39'
p32
L5044L
sS'7:71'
p33
L4233L
sS'6:15'
p34
L6215L
sS'43:109'
p35
L4387L
sS'2:28'
p36
L5097L
sS'16:92'
p37
L4511L
sS'5:16'
p38
L6858L
sS'5:13'
p39
L6905L
sS'40:81'
p40
L4502L
sS'23:128'
p41
L4359L
sS'6:67'
p42
L4551L
sS'3:36'
p43
L5252L
sS'19:77'
p44
L4534L
sS'14:29'
p45
L4769L
sS'39:87'
p46
L4400L
sS'6:28'
p47
L4982L
sS'11:55'
p48
L4782L
sS'26:97'
p49
L4375L
sS'39:123'
p50
L4330L
sS'43:118'
p51
L4314L
sS'6:20'
p52
L5897L
sS'49:111'
p53
L4358L
sS'14:38'
p54
L4864L
sS'4:20'
p55
L6048L
sS'11:116'
p56
L4298L
sS'6:32'
p57
L5231L
sS'35:71'
p58
L4583L
sS'43:128'
p59
L4411L
sS'26:65'
p60
L4547L
sS'13:77'
p61
L4558L
sS'25:63'
p62
L4463L
sS'30:78'
p63
L4429L
sS'27:90'
p64
L4352L
sS'20:128'
p65
L4098L
sS'16:77'
p66
L4452L
sS'15:42'
p67
L4902L
sS'15:44'
p68
L4869L
sS'7:62'
p69
L4495L
sS'8:24'
p70
L5248L
sS'19:126'
p71
L4270L
sS'13:128'
p72
L4332L
sS'26:116'
p73
L4298L
sS'26:79'
p74
L4414L
sS'11:71'
p75
L4596L
sS'41:128'
p76
L4424L
sS'23:117'
p77
L4244L
sS'23:116'
p78
L4191L
sS'28:70'
p79
L4331L
sS'30:112'
p80
L4149L
sS'58:127'
p81
L4435L
sS'13:50'
p82
L4439L
sS'35:113'
p83
L4369L
sS'6:55'
p84
L4483L
sS'29:128'
p85
L4395L
sS'20:100'
p86
L4346L
sS'47:121'
p87
L4319L
sS'16:58'
p88
L4435L
sS'24:128'
p89
L4393L
sS'12:128'
p90
L4270L
sS'16:57'
p91
L4667L
sS'2:6'
p92
L12531L
sS'15:60'
p93
L4235L
sS'26:55'
p94
L4494L
sS'27:67'
p95
L4505L
sS'13:28'
p96
L5066L
sS'12:50'
p97
L4516L
sS'32:110'
p98
L4347L
sS'5:49'
p99
L4414L
sS'17:64'
p100
L4604L
sS'8:50'
p101
L4500L
sS'18:58'
p102
L4520L
sS'20:61'
p103
L4483L
sS'7:31'
p104
L4982L
s.