(dp0
S'13:32'
p1
L98L
sS'42:112'
p2
L143L
sS'11:24'
p3
L109L
sS'14:90'
p4
L87L
sS'27:54'
p5
L115L
sS'12:47'
p6
L96L
sS'10:51'
p7
L109L
sS'10:59'
p8
L99L
sS'22:68'
p9
L115L
sS'14:66'
p10
L110L
sS'14:60'
p11
L111L
sS'14:68'
p12
L106L
sS'8:65'
p13
L102L
sS'2:4'
p14
L104L
sS'9:32'
p15
L93L
sS'9:33'
p16
L94L
sS'3:14'
p17
L75L
sS'3:15'
p18
L83L
sS'3:16'
p19
L76L
sS'3:11'
p20
L92L
sS'7:27'
p21
L86L
sS'1:8'
p22
L71L
sS'11:36'
p23
L88L
sS'7:46'
p24
L96L
sS'1:4'
p25
L87L
sS'1:5'
p26
L82L
sS'31:96'
p27
L135L
sS'1:7'
p28
L72L
sS'10:42'
p29
L100L
sS'10:40'
p30
L103L
sS'10:46'
p31
L98L
sS'19:50'
p32
L107L
sS'18:75'
p33
L133L
sS'5:20'
p34
L76L
sS'5:27'
p35
L88L
sS'5:26'
p36
L86L
sS'5:24'
p37
L85L
sS'2:13'
p38
L75L
sS'5:29'
p39
L84L
sS'2:10'
p40
L89L
sS'2:17'
p41
L79L
sS'2:16'
p42
L85L
sS'2:15'
p43
L81L
sS'61:128'
p44
L179L
sS'24:93'
p45
L137L
sS'59:124'
p46
L172L
sS'16:103'
p47
L101L
sS'7:79'
p48
L120L
sS'14:123'
p49
L108L
sS'42:96'
p50
L145L
sS'44:110'
p51
L160L
sS'22:47'
p52
L117L
sS'22:46'
p53
L105L
sS'11:41'
p54
L106L
sS'26:82'
p55
L120L
sS'12:28'
p56
L114L
sS'12:29'
p57
L95L
sS'30:93'
p58
L135L
sS'36:77'
p59
L128L
sS'6:15'
p60
L88L
sS'1:15'
p61
L76L
sS'19:66'
p62
L119L
sS'26:89'
p63
L124L
sS'18:63'
p64
L104L
sS'18:65'
p65
L106L
sS'5:16'
p66
L96L
sS'13:72'
p67
L114L
sS'9:90'
p68
L86L
sS'7:69'
p69
L86L
sS'12:56'
p70
L100L
sS'3:31'
p71
L82L
sS'33:124'
p72
L129L
sS'51:115'
p73
L159L
sS'9:74'
p74
L96L
sS'19:78'
p75
L105L
sS'15:107'
p76
L115L
sS'13:69'
p77
L99L
sS'6:23'
p78
L88L
sS'9:89'
p79
L86L
sS'13:62'
p80
L107L
sS'16:80'
p81
L114L
sS'3:20'
p82
L83L
sS'14:39'
p83
L102L
sS'4:41'
p84
L86L
sS'4:22'
p85
L84L
sS'4:23'
p86
L87L
sS'8:52'
p87
L89L
sS'6:31'
p88
L88L
sS'6:32'
p89
L85L
sS'24:51'
p90
L114L
sS'34:84'
p91
L121L
sS'4:37'
p92
L86L
sS'50:127'
p93
L182L
sS'33:104'
p94
L142L
sS'18:86'
p95
L122L
sS'19:80'
p96
L120L
sS'9:78'
p97
L99L
sS'10:97'
p98
L137L
sS'7:28'
p99
L88L
sS'6:26'
p100
L89L
sS'8:20'
p101
L89L
sS'8:24'
p102
L90L
sS'7:70'
p103
L110L
sS'6:41'
p104
L85L
sS'6:44'
p105
L92L
sS'30:101'
p106
L147L
sS'10:105'
p107
L102L
sS'10:102'
p108
L97L
sS'15:49'
p109
L102L
sS'3:9'
p110
L86L
sS'7:20'
p111
L97L
sS'13:127'
p112
L120L
sS'1:13'
p113
L74L
sS'1:11'
p114
L79L
sS'1:17'
p115
L76L
sS'20:116'
p116
L107L
sS'9:75'
p117
L96L
sS'14:58'
p118
L106L
sS'2:22'
p119
L78L
sS'12:63'
p120
L101L
sS'36:89'
p121
L118L
sS'17:91'
p122
L111L
sS'13:52'
p123
L102L
sS'17:98'
p124
L128L
sS'6:17'
p125
L82L
sS'8:88'
p126
L104L
sS'8:85'
p127
L91L
sS'8:82'
p128
L95L
sS'16:59'
p129
L107L
sS'16:52'
p130
L110L
sS'16:54'
p131
L100L
sS'5:58'
p132
L104L
sS'25:85'
p133
L133L
sS'14:83'
p134
L107L
sS'4:15'
p135
L86L
sS'4:14'
p136
L85L
sS'14:45'
p137
L102L
sS'5:54'
p138
L80L
sS'29:68'
p139
L132L
sS'13:27'
p140
L97L
sS'38:76'
p141
L145L
sS'6:67'
p142
L90L
sS'6:65'
p143
L82L
sS'6:62'
p144
L91L
sS'35:108'
p145
L118L
sS'10:24'
p146
L93L
sS'15:70'
p147
L119L
sS'16:47'
p148
L99L
sS'1:6'
p149
L88L
sS'6:68'
p150
L100L
sS'42:100'
p151
L136L
sS'9:45'
p152
L99L
sS'5:49'
p153
L91L
sS'17:67'
p154
L113L
sS'18:51'
p155
L104L
sS'15:72'
p156
L113L
sS'18:52'
p157
L107L
sS'20:62'
p158
L122L
s.