(dp0
S'27:128'
p1
L1963L
sS'12:43'
p2
L1987L
sS'25:102'
p3
L1981L
sS'28:128'
p4
L1866L
sS'28:91'
p5
L1943L
sS'26:128'
p6
L1853L
sS'19:49'
p7
L2006L
sS'20:82'
p8
L1985L
sS'14:103'
p9
L1963L
sS'15:99'
p10
L1955L
sS'5:37'
p11
L2057L
sS'24:102'
p12
L1881L
sS'17:77'
p13
L1874L
sS'22:67'
p14
L1985L
sS'7:29'
p15
L2094L
sS'9:35'
p16
L2066L
sS'21:78'
p17
L1976L
sS'3:39'
p18
L1998L
sS'49:128'
p19
L1914L
sS'9:33'
p20
L2150L
sS'21:73'
p21
L1876L
sS'7:25'
p22
L2143L
sS'21:75'
p23
L1946L
sS'8:47'
p24
L1997L
sS'4:46'
p25
L1900L
sS'14:88'
p26
L1851L
sS'35:128'
p27
L1886L
sS'17:101'
p28
L1880L
sS'37:92'
p29
L2027L
sS'1:5'
p30
L4480L
sS'17:47'
p31
L2005L
sS'17:45'
p32
L2028L
sS'34:109'
p33
L1887L
sS'59:128'
p34
L1957L
sS'32:106'
p35
L1865L
sS'2:19'
p36
L2318L
sS'44:128'
p37
L1925L
sS'15:125'
p38
L1943L
sS'12:111'
p39
L1967L
sS'5:28'
p40
L2057L
sS'54:128'
p41
L1932L
sS'5:54'
p42
L1991L
sS'14:40'
p43
L2032L
sS'16:35'
p44
L2082L
sS'57:128'
p45
L2018L
sS'22:70'
p46
L2000L
sS'8:78'
p47
L1919L
sS'25:128'
p48
L1955L
sS'14:127'
p49
L1862L
sS'28:114'
p50
L1882L
sS'28:116'
p51
L1998L
sS'1:16'
p52
L2315L
sS'7:70'
p53
L1974L
sS'13:109'
p54
L1873L
sS'7:77'
p55
L1966L
sS'21:111'
p56
L1866L
sS'34:123'
p57
L1861L
sS'2:21'
p58
L2239L
sS'30:91'
p59
L1917L
sS'6:14'
p60
L2469L
sS'29:108'
p61
L2011L
sS'2:28'
p62
L2119L
sS'9:99'
p63
L1969L
sS'29:87'
p64
L2018L
sS'9:92'
p65
L1864L
sS'9:96'
p66
L1851L
sS'8:42'
p67
L2026L
sS'22:124'
p68
L1954L
sS'40:86'
p69
L2016L
sS'23:128'
p70
L1965L
sS'31:113'
p71
L1895L
sS'3:31'
p72
L2081L
sS'30:84'
p73
L1886L
sS'19:76'
p74
L1863L
sS'51:115'
p75
L2020L
sS'17:116'
p76
L1955L
sS'17:117'
p77
L1865L
sS'15:75'
p78
L1884L
sS'17:104'
p79
L1874L
sS'17:110'
p80
L1940L
sS'26:90'
p81
L1951L
sS'30:128'
p82
L1884L
sS'39:128'
p83
L2014L
sS'11:52'
p84
L1976L
sS'13:68'
p85
L1984L
sS'13:106'
p86
L1855L
sS'22:58'
p87
L1980L
sS'45:91'
p88
L2026L
sS'45:90'
p89
L2036L
sS'13:61'
p90
L1943L
sS'52:111'
p91
L2025L
sS'47:103'
p92
L2035L
sS'18:107'
p93
L1971L
sS'31:74'
p94
L2002L
sS'12:90'
p95
L1962L
sS'49:110'
p96
L2009L
sS'32:128'
p97
L1870L
sS'34:79'
p98
L1972L
sS'14:35'
p99
L2076L
sS'33:118'
p100
L1989L
sS'23:99'
p101
L1977L
sS'18:109'
p102
L1875L
sS'31:123'
p103
L1878L
sS'8:59'
p104
L1880L
sS'19:80'
p105
L1863L
sS'31:128'
p106
L1907L
sS'11:53'
p107
L2015L
sS'27:98'
p108
L1868L
sS'56:116'
p109
L2008L
sS'37:122'
p110
L1983L
sS'40:126'
p111
L1893L
sS'40:123'
p112
L1995L
sS'29:103'
p113
L1879L
sS'64:128'
p114
L1923L
sS'34:108'
p115
L1940L
sS'34:81'
p116
L1994L
sS'13:74'
p117
L1992L
sS'16:79'
p118
L1865L
sS'35:110'
p119
L1998L
sS'16:74'
p120
L1955L
sS'20:127'
p121
L1856L
sS'30:72'
p122
L2023L
sS'19:128'
p123
L1964L
sS'29:75'
p124
L1992L
sS'19:121'
p125
L1872L
sS'9:72'
p126
L1976L
sS'28:63'
p127
L2012L
sS'10:108'
p128
L1876L
sS'12:76'
p129
L1863L
sS'10:106'
p130
L1855L
sS'10:107'
p131
L1955L
sS'21:128'
p132
L1849L
sS'57:115'
p133
L2025L
sS'41:124'
p134
L1953L
sS'13:128'
p135
L1968L
sS'24:64'
p136
L2017L
sS'41:128'
p137
L1982L
sS'23:117'
p138
L1960L
sS'19:98'
p139
L1864L
sS'11:108'
p140
L1969L
sS'23:112'
p141
L1971L
sS'18:126'
p142
L1904L
sS'18:128'
p143
L1859L
sS'1:13'
p144
L2614L
sS'19:96'
p145
L1957L
sS'16:122'
p146
L1860L
sS'23:119'
p147
L1867L
sS'20:40'
p148
L2045L
sS'20:44'
p149
L2047L
sS'25:93'
p150
L2030L
sS'48:128'
p151
L2002L
sS'9:67'
p152
L1974L
sS'34:78'
p153
L2009L
sS'29:73'
p154
L2009L
sS'28:73'
p155
L2001L
sS'27:75'
p156
L1990L
sS'27:77'
p157
L2004L
sS'22:89'
p158
L1987L
sS'8:89'
p159
L1953L
sS'8:86'
p160
L1919L
sS'8:87'
p161
L1850L
sS'22:86'
p162
L1885L
sS'9:56'
p163
L1955L
sS'19:102'
p164
L1860L
sS'12:125'
p165
L1847L
sS'32:86'
p166
L2009L
sS'23:67'
p167
L2002L
sS'12:128'
p168
L1976L
sS'38:101'
p169
L2029L
sS'12:79'
p170
L1869L
sS'5:58'
p171
L1866L
sS'34:128'
p172
L1993L
sS'44:124'
p173
L2003L
sS'4:15'
p174
L2405L
sS'14:122'
p175
L1868L
sS'5:51'
p176
L1886L
sS'2:9'
p177
L2925L
sS'12:122'
p178
L1871L
sS'27:61'
p179
L2022L
sS'22:90'
p180
L1985L
sS'28:88'
p181
L1889L
sS'12:59'
p182
L1982L
sS'22:93'
p183
L1895L
sS'37:78'
p184
L2016L
sS'1:4'
p185
L5446L
sS'11:115'
p186
L1846L
sS'21:94'
p187
L2013L
sS'10:27'
p188
L2128L
sS'16:92'
p189
L1863L
sS'24:115'
p190
L1873L
sS'24:110'
p191
L1872L
sS'23:54'
p192
L2009L
sS'17:125'
p193
L1860L
sS'16:52'
p194
L2006L
sS'7:32'
p195
L2070L
sS'19:109'
p196
L1872L
sS'17:128'
p197
L1874L
s.