(dp0
S'19:66'
p1
L2377L
sS'13:31'
p2
L2564L
sS'28:97'
p3
L2434L
sS'7:57'
p4
L2391L
sS'14:97'
p5
L2209L
sS'31:106'
p6
L2323L
sS'20:110'
p7
L2221L
sS'26:128'
p8
L2207L
sS'16:119'
p9
L2247L
sS'19:57'
p10
L2306L
sS'16:38'
p11
L2602L
sS'39:118'
p12
L2428L
sS'38:103'
p13
L2323L
sS'26:127'
p14
L2192L
sS'20:88'
p15
L2333L
sS'26:125'
p16
L2212L
sS'5:32'
p17
L2586L
sS'26:119'
p18
L2278L
sS'20:128'
p19
L2247L
sS'22:126'
p20
L2196L
sS'12:104'
p21
L2228L
sS'26:73'
p22
L2436L
sS'11:91'
p23
L2321L
sS'11:96'
p24
L2241L
sS'9:31'
p25
L2582L
sS'12:41'
p26
L2558L
sS'7:20'
p27
L2902L
sS'18:41'
p28
L2601L
sS'3:11'
p29
L3577L
sS'20:76'
p30
L2305L
sS'48:128'
p31
L2435L
sS'19:114'
p32
L2363L
sS'20:121'
p33
L2210L
sS'45:115'
p34
L2364L
sS'40:111'
p35
L2459L
sS'4:8'
p36
L4275L
sS'35:125'
p37
L2404L
sS'25:81'
p38
L2318L
sS'1:4'
p39
L7967L
sS'28:128'
p40
L2191L
sS'7:41'
p41
L2520L
sS'21:96'
p42
L2268L
sS'20:96'
p43
L2315L
sS'20:103'
p44
L2236L
sS'36:128'
p45
L2432L
sS'25:56'
p46
L2491L
sS'39:108'
p47
L2370L
sS'36:120'
p48
L2381L
sS'13:89'
p49
L2400L
sS'59:128'
p50
L2520L
sS'4:46'
p51
L2487L
sS'5:22'
p52
L2807L
sS'4:45'
p53
L2463L
sS'54:124'
p54
L2471L
sS'34:112'
p55
L2342L
sS'29:96'
p56
L2458L
sS'27:128'
p57
L2222L
sS'2:10'
p58
L3846L
sS'12:115'
p59
L2212L
sS'22:75'
p60
L2398L
sS'35:82'
p61
L2390L
sS'24:90'
p62
L2288L
sS'24:96'
p63
L2429L
sS'57:124'
p64
L2474L
sS'27:125'
p65
L2228L
sS'12:87'
p66
L2327L
sS'16:105'
p67
L2314L
sS'25:128'
p68
L2260L
sS'20:115'
p69
L2241L
sS'62:128'
p70
L2501L
sS'21:112'
p71
L2218L
sS'19:118'
p72
L2245L
sS'25:123'
p73
L2199L
sS'14:128'
p74
L2236L
sS'25:126'
p75
L2222L
sS'25:127'
p76
L2218L
sS'20:127'
p77
L2213L
sS'43:107'
p78
L2457L
sS'34:120'
p79
L2301L
sS'19:44'
p80
L2549L
sS'12:26'
p81
L2713L
sS'5:57'
p82
L2351L
sS'30:72'
p83
L2505L
sS'41:115'
p84
L2411L
sS'34:128'
p85
L2358L
sS'30:96'
p86
L2285L
sS'9:99'
p87
L2326L
sS'16:92'
p88
L2399L
sS'36:97'
p89
L2429L
sS'18:67'
p90
L2304L
sS'15:116'
p91
L2237L
sS'5:11'
p92
L3532L
sS'33:128'
p93
L2286L
sS'22:125'
p94
L2206L
sS'9:68'
p95
L2339L
sS'22:123'
p96
L2232L
sS'21:117'
p97
L2228L
sS'23:128'
p98
L2256L
sS'22:120'
p99
L2265L
sS'23:126'
p100
L2301L
sS'23:127'
p101
L2233L
sS'3:30'
p102
L2635L
sS'33:122'
p103
L2312L
sS'23:123'
p104
L2233L
sS'33:127'
p105
L2265L
sS'22:128'
p106
L2249L
sS'22:106'
p107
L2243L
sS'20:116'
p108
L2268L
sS'17:118'
p109
L2240L
sS'17:119'
p110
L2256L
sS'22:98'
p111
L2258L
sS'19:117'
p112
L2206L
sS'23:114'
p113
L2214L
sS'17:113'
p114
L2254L
sS'15:103'
p115
L2248L
sS'10:68'
p116
L2326L
sS'13:103'
p117
L2291L
sS'39:128'
p118
L2400L
sS'25:107'
p119
L2352L
sS'43:114'
p120
L2396L
sS'9:83'
p121
L2364L
sS'7:19'
p122
L2930L
sS'22:58'
p123
L2304L
sS'13:64'
p124
L2395L
sS'6:27'
p125
L2672L
sS'30:124'
p126
L2245L
sS'13:62'
p127
L2405L
sS'33:114'
p128
L2262L
sS'32:122'
p129
L2311L
sS'33:117'
p130
L2289L
sS'18:99'
p131
L2361L
sS'3:20'
p132
L2940L
sS'32:128'
p133
L2361L
sS'14:36'
p134
L2585L
sS'17:107'
p135
L2398L
sS'27:107'
p136
L2252L
sS'14:33'
p137
L2596L
sS'30:128'
p138
L2262L
sS'14:30'
p139
L2653L
sS'31:125'
p140
L2265L
sS'31:124'
p141
L2208L
sS'10:20'
p142
L2859L
sS'31:128'
p143
L2342L
sS'38:128'
p144
L2283L
sS'6:37'
p145
L2566L
sS'16:76'
p146
L2433L
sS'37:123'
p147
L2265L
sS'27:117'
p148
L2270L
sS'51:105'
p149
L2473L
sS'26:97'
p150
L2326L
sS'37:128'
p151
L2327L
sS'18:118'
p152
L2233L
sS'39:123'
p153
L2278L
sS'11:61'
p154
L2420L
sS'11:60'
p155
L2391L
sS'43:128'
p156
L2392L
sS'20:120'
p157
L2224L
sS'39:96'
p158
L2474L
sS'11:64'
p159
L2421L
sS'21:110'
p160
L2229L
sS'34:82'
p161
L2412L
sS'11:113'
p162
L2309L
sS'28:57'
p163
L2415L
sS'20:118'
p164
L2263L
sS'30:116'
p165
L2297L
sS'18:114'
p166
L2307L
sS'11:118'
p167
L2232L
sS'38:127'
p168
L2286L
sS'33:105'
p169
L2342L
sS'19:128'
p170
L2205L
sS'12:86'
p171
L2261L
sS'18:85'
p172
L2442L
sS'11:110'
p173
L2208L
sS'12:81'
p174
L2357L
sS'19:87'
p175
L2361L
sS'18:81'
p176
L2407L
sS'9:78'
p177
L2263L
sS'15:40'
p178
L2562L
sS'10:97'
p179
L2325L
sS'7:61'
p180
L2370L
sS'23:68'
p181
L2408L
sS'7:63'
p182
L2352L
sS'15:46'
p183
L2519L
sS'23:100'
p184
L2355L
sS'19:122'
p185
L2236L
sS'19:125'
p186
L2266L
sS'22:114'
p187
L2203L
sS'23:106'
p188
L2244L
sS'19:126'
p189
L2174L
sS'21:124'
p190
L2191L
sS'12:70'
p191
L2347L
sS'10:109'
p192
L2213L
sS'37:118'
p193
L2282L
sS'10:104'
p194
L2290L
sS'10:92'
p195
L2327L
sS'21:128'
p196
L2204L
sS'10:100'
p197
L2241L
sS'41:126'
p198
L2398L
sS'19:121'
p199
L2250L
sS'24:64'
p200
L2404L
sS'29:119'
p201
L2441L
sS'27:108'
p202
L2274L
sS'13:40'
p203
L2435L
sS'21:118'
p204
L2258L
sS'13:46'
p205
L2515L
sS'41:128'
p206
L2438L
sS'47:115'
p207
L2490L
sS'20:119'
p208
L2343L
sS'47:117'
p209
L2402L
sS'18:123'
p210
L2213L
sS'38:97'
p211
L2455L
sS'8:17'
p212
L3062L
sS'20:106'
p213
L2252L
sS'19:92'
p214
L2444L
sS'19:96'
p215
L2262L
sS'16:63'
p216
L2393L
sS'27:82'
p217
L2386L
sS'20:40'
p218
L2590L
sS'15:51'
p219
L2432L
sS'15:56'
p220
L2434L
sS'11:119'
p221
L2201L
sS'20:49'
p222
L2493L
sS'20:48'
p223
L2469L
sS'14:57'
p224
L2431L
sS'14:56'
p225
L2456L
sS'9:67'
p226
L2361L
sS'12:63'
p227
L2385L
sS'12:60'
p228
L2330L
sS'19:127'
p229
L2166L
sS'12:67'
p230
L2276L
sS'17:92'
p231
L2323L
sS'22:119'
p232
L2255L
sS'28:78'
p233
L2443L
sS'6:59'
p234
L2365L
sS'17:58'
p235
L2439L
sS'45:128'
p236
L2351L
sS'29:128'
p237
L2333L
sS'8:89'
p238
L2289L
sS'8:86'
p239
L2263L
sS'24:75'
p240
L2352L
sS'8:85'
p241
L2231L
sS'24:120'
p242
L2286L
sS'29:127'
p243
L2248L
sS'28:123'
p244
L2227L
sS'12:124'
p245
L2321L
sS'14:119'
p246
L2220L
sS'24:128'
p247
L2231L
sS'38:106'
p248
L2306L
sS'23:65'
p249
L2424L
sS'11:48'
p250
L2498L
sS'23:125'
p251
L2224L
sS'14:127'
p252
L2230L
sS'7:46'
p253
L2498L
sS'5:53'
p254
L2441L
sS'5:50'
p255
L2436L
sS'5:51'
p256
L2484L
sS'4:11'
p257
L3553L
sS'21:50'
p258
L2506L
sS'5:54'
p259
L2390L
sS'15:60'
p260
L2422L
sS'21:123'
p261
L2205L
sS'14:81'
p262
L2270L
sS'22:90'
p263
L2300L
sS'24:86'
p264
L2302L
sS'6:23'
p265
L2788L
sS'28:86'
p266
L2342L
sS'35:109'
p267
L2432L
sS'36:102'
p268
L2463L
sS'16:114'
p269
L2253L
sS'50:128'
p270
L2427L
sS'21:97'
p271
L2270L
sS'10:22'
p272
L2804L
sS'16:112'
p273
L2268L
sS'41:88'
p274
L2420L
sS'9:50'
p275
L2465L
sS'5:43'
p276
L2509L
sS'22:109'
p277
L2227L
sS'17:62'
p278
L2446L
sS'30:111'
p279
L2309L
sS'24:113'
p280
L2257L
sS'17:126'
p281
L2204L
sS'17:122'
p282
L2266L
sS'16:128'
p283
L2239L
sS'24:127'
p284
L2218L
sS'15:70'
p285
L2368L
sS'14:71'
p286
L2395L
sS'16:125'
p287
L2196L
sS'17:128'
p288
L2275L
s.