(dp0
S'58:125'
p1
L1205L
sS'1:11'
p2
L1670L
sS'7:58'
p3
L1163L
sS'3:29'
p4
L1255L
sS'22:118'
p5
L1173L
sS'6:52'
p6
L1183L
sS'25:101'
p7
L1185L
sS'12:41'
p8
L1204L
sS'7:70'
p9
L1171L
sS'16:36'
p10
L1238L
sS'17:99'
p11
L1180L
sS'28:128'
p12
L1162L
sS'7:53'
p13
L1178L
sS'40:128'
p14
L1186L
sS'7:77'
p15
L1129L
sS'35:77'
p16
L1212L
sS'21:87'
p17
L1161L
sS'12:29'
p18
L1264L
sS'41:96'
p19
L1208L
sS'20:89'
p20
L1155L
sS'23:49'
p21
L1198L
sS'27:93'
p22
L1184L
sS'18:61'
p23
L1219L
sS'16:111'
p24
L1171L
sS'24:103'
p25
L1175L
sS'20:124'
p26
L1151L
sS'23:64'
p27
L1194L
sS'5:15'
p28
L1427L
sS'5:12'
p29
L1553L
sS'12:63'
p30
L1169L
sS'37:85'
p31
L1178L
sS'9:36'
p32
L1203L
sS'18:49'
p33
L1187L
sS'9:91'
p34
L1130L
sS'4:15'
p35
L1436L
sS'18:43'
p36
L1192L
sS'20:73'
p37
L1247L
sS'53:117'
p38
L1209L
sS'37:105'
p39
L1186L
sS'7:27'
p40
L1250L
sS'49:121'
p41
L1202L
sS'51:115'
p42
L1207L
sS'37:98'
p43
L1210L
sS'29:65'
p44
L1201L
sS'31:93'
p45
L1207L
sS'1:4'
p46
L3252L
sS'5:47'
p47
L1183L
sS'40:118'
p48
L1169L
sS'1:7'
p49
L2059L
sS'56:128'
p50
L1193L
sS'8:26'
p51
L1268L
sS'17:43'
p52
L1213L
sS'12:38'
p53
L1205L
sS'20:113'
p54
L1196L
sS'24:69'
p55
L1185L
sS'13:66'
p56
L1190L
sS'25:73'
p57
L1181L
sS'20:98'
p58
L1173L
sS'11:59'
p59
L1165L
sS'33:98'
p60
L1200L
sS'15:73'
p61
L1133L
sS'12:97'
p62
L1156L
sS'59:128'
p63
L1184L
sS'16:86'
p64
L1163L
sS'32:122'
p65
L1152L
sS'54:128'
p66
L1249L
sS'8:51'
p67
L1196L
sS'12:110'
p68
L1192L
sS'22:76'
p69
L1179L
sS'12:116'
p70
L1176L
sS'23:55'
p71
L1176L
sS'17:76'
p72
L1148L
sS'32:128'
p73
L1155L
sS'15:36'
p74
L1229L
sS'57:127'
p75
L1240L
sS'35:92'
p76
L1196L
sS'7:16'
p77
L1430L
sS'7:17'
p78
L1397L
sS'18:51'
p79
L1181L
sS'9:20'
p80
L1328L
sS'7:26'
p81
L1247L
sS'7:32'
p82
L1238L
sS'12:128'
p83
L1145L
sS'1:5'
p84
L2644L
s.