(dp0
S'13:32'
p1
L3254L
sS'42:111'
p2
L3195L
sS'45:107'
p3
L3064L
sS'27:57'
p4
L3206L
sS'31:86'
p5
L3199L
sS'7:51'
p6
L3182L
sS'28:128'
p7
L2952L
sS'12:47'
p8
L3218L
sS'15:91'
p9
L3169L
sS'52:128'
p10
L3176L
sS'5:36'
p11
L3295L
sS'14:63'
p12
L3098L
sS'3:7'
p13
L5051L
sS'20:79'
p14
L3158L
sS'48:123'
p15
L3226L
sS'49:128'
p16
L3147L
sS'18:43'
p17
L3269L
sS'7:23'
p18
L3395L
sS'12:32'
p19
L3338L
sS'7:26'
p20
L3416L
sS'4:9'
p21
L4641L
sS'7:45'
p22
L3194L
sS'31:94'
p23
L3208L
sS'1:5'
p24
L7007L
sS'10:41'
p25
L3240L
sS'10:46'
p26
L3216L
sS'12:38'
p27
L3242L
sS'17:40'
p28
L3309L
sS'36:123'
p29
L3173L
sS'2:19'
p30
L3750L
sS'29:94'
p31
L3229L
sS'27:128'
p32
L3117L
sS'2:17'
p33
L3811L
sS'2:15'
p34
L3905L
sS'2:14'
p35
L4031L
sS'9:22'
p36
L3521L
sS'35:84'
p37
L3231L
sS'57:128'
p38
L3274L
sS'9:29'
p39
L3365L
sS'7:78'
p40
L3145L
sS'31:87'
p41
L3110L
sS'51:128'
p42
L3165L
sS'44:114'
p43
L3244L
sS'43:102'
p44
L3240L
sS'2:22'
p45
L3520L
sS'6:19'
p46
L3659L
sS'12:26'
p47
L3439L
sS'6:15'
p48
L3748L
sS'18:78'
p49
L3180L
sS'31:66'
p50
L3230L
sS'5:19'
p51
L3554L
sS'18:68'
p52
L3275L
sS'5:13'
p53
L4026L
sS'3:38'
p54
L3285L
sS'28:105'
p55
L3080L
sS'12:86'
p56
L3144L
sS'17:42'
p57
L3178L
sS'22:100'
p58
L3065L
sS'13:103'
p59
L3137L
sS'11:50'
p60
L3117L
sS'13:65'
p61
L3016L
sS'13:108'
p62
L3142L
sS'39:89'
p63
L3183L
sS'3:25'
p64
L3493L
sS'36:87'
p65
L3233L
sS'9:87'
p66
L3135L
sS'11:71'
p67
L3080L
sS'15:33'
p68
L3386L
sS'4:28'
p69
L3372L
sS'4:29'
p70
L3359L
sS'6:34'
p71
L3293L
sS'25:69'
p72
L3179L
sS'41:98'
p73
L3243L
sS'25:65'
p74
L3211L
sS'43:123'
p75
L3248L
sS'47:106'
p76
L3212L
sS'11:118'
p77
L3043L
sS'32:65'
p78
L3194L
sS'30:71'
p79
L3264L
sS'11:115'
p80
L3100L
sS'19:83'
p81
L3177L
sS'11:111'
p82
L3127L
sS'11:113'
p83
L3100L
sS'15:42'
p84
L3288L
sS'10:91'
p85
L2968L
sS'8:60'
p86
L3161L
sS'6:40'
p87
L3155L
sS'30:106'
p88
L3175L
sS'37:114'
p89
L3198L
sS'30:101'
p90
L3206L
sS'21:128'
p91
L2959L
sS'17:99'
p92
L3154L
sS'3:9'
p93
L4639L
sS'24:64'
p94
L3113L
sS'26:72'
p95
L3213L
sS'13:46'
p96
L3217L
sS'41:128'
p97
L3053L
sS'1:4'
p98
L8561L
sS'23:114'
p99
L2997L
sS'16:68'
p100
L3211L
sS'23:76'
p101
L3179L
sS'11:107'
p102
L3117L
sS'16:63'
p103
L3092L
sS'34:73'
p104
L3230L
sS'8:37'
p105
L3271L
sS'58:128'
p106
L3258L
sS'22:113'
p107
L3160L
sS'37:100'
p108
L3244L
sS'20:100'
p109
L3189L
sS'24:76'
p110
L3169L
sS'12:121'
p111
L3091L
sS'12:128'
p112
L3125L
sS'16:50'
p113
L3097L
sS'10:36'
p114
L3185L
sS'38:103'
p115
L3011L
sS'44:122'
p116
L3234L
sS'14:48'
p117
L3036L
sS'4:14'
p118
L3962L
sS'14:42'
p119
L3259L
sS'36:73'
p120
L3140L
sS'38:77'
p121
L3234L
sS'13:28'
p122
L3393L
sS'6:63'
p123
L3163L
sS'53:120'
p124
L3101L
sS'23:59'
p125
L3000L
sS'9:46'
p126
L3206L
sS'17:65'
p127
L3189L
sS'24:113'
p128
L3177L
sS'24:60'
p129
L3106L
sS'33:83'
p130
L3241L
sS'25:54'
p131
L3192L
s.