(dp0
S'44:118'
p1
L1548L
sS'6:36'
p2
L1610L
sS'6:57'
p3
L1528L
sS'30:105'
p4
L1536L
sS'28:95'
p5
L1508L
sS'7:50'
p6
L1576L
sS'37:80'
p7
L1561L
sS'2:16'
p8
L2012L
sS'15:97'
p9
L1511L
sS'17:53'
p10
L1562L
sS'29:128'
p11
L1478L
sS'6:37'
p12
L1606L
sS'6:18'
p13
L1892L
sS'12:26'
p14
L1731L
sS'5:57'
p15
L1524L
sS'11:49'
p16
L1562L
sS'26:89'
p17
L1560L
sS'33:103'
p18
L1544L
sS'29:86'
p19
L1514L
sS'33:105'
p20
L1529L
sS'47:94'
p21
L1577L
sS'5:14'
p22
L2007L
sS'16:71'
p23
L1541L
sS'8:66'
p24
L1518L
sS'11:96'
p25
L1496L
sS'21:52'
p26
L1578L
sS'4:31'
p27
L1658L
sS'15:46'
p28
L1592L
sS'8:49'
p29
L1582L
sS'7:25'
p30
L1736L
sS'4:10'
p31
L2332L
sS'18:44'
p32
L1618L
sS'7:26'
p33
L1713L
sS'19:39'
p34
L1642L
sS'12:75'
p35
L1526L
sS'16:128'
p36
L1496L
sS'48:105'
p37
L1564L
sS'22:98'
p38
L1516L
sS'6:65'
p39
L1532L
sS'1:4'
p40
L5187L
sS'23:115'
p41
L1505L
sS'1:6'
p42
L3389L
sS'21:45'
p43
L1621L
sS'51:128'
p44
L1546L
sS'36:100'
p45
L1574L
sS'36:106'
p46
L1540L
sS'17:42'
p47
L1586L
sS'19:59'
p48
L1586L
sS'6:22'
p49
L1772L
sS'33:107'
p50
L1551L
sS'26:74'
p51
L1539L
sS'13:47'
p52
L1571L
sS'6:24'
p53
L1730L
sS'50:123'
p54
L1567L
sS'2:19'
p55
L1890L
sS'30:69'
p56
L1578L
sS'31:72'
p57
L1572L
sS'15:128'
p58
L1508L
sS'17:61'
p59
L1570L
sS'23:56'
p60
L1553L
sS'35:91'
p61
L1568L
sS'61:128'
p62
L1584L
sS'28:59'
p63
L1576L
sS'4:20'
p64
L1827L
sS'7:38'
p65
L1613L
sS'11:52'
p66
L1544L
sS'8:52'
p67
L1546L
sS'61:124'
p68
L1581L
sS'7:33'
p69
L1638L
sS'1:5'
p70
L4058L
sS'18:56'
p71
L1516L
s.