(dp0
S'11:27'
p1
L2707L
sS'13:30'
p2
L2619L
sS'13:31'
p3
L2656L
sS'14:93'
p4
L2308L
sS'8:30'
p5
L2644L
sS'12:47'
p6
L2469L
sS'11:24'
p7
L2879L
sS'16:34'
p8
L2637L
sS'15:90'
p9
L2390L
sS'23:48'
p10
L2493L
sS'24:108'
p11
L2294L
sS'17:76'
p12
L2377L
sS'20:79'
p13
L2337L
sS'11:94'
p14
L2288L
sS'3:16'
p15
L3475L
sS'20:74'
p16
L2378L
sS'18:75'
p17
L2321L
sS'14:82'
p18
L2339L
sS'31:92'
p19
L2382L
sS'1:4'
p20
L11276L
sS'1:5'
p21
L8413L
sS'1:6'
p22
L6327L
sS'36:120'
p23
L2295L
sS'42:102'
p24
L2341L
sS'21:66'
p25
L2413L
sS'4:45'
p26
L2497L
sS'15:128'
p27
L2297L
sS'2:13'
p28
L3494L
sS'21:68'
p29
L2389L
sS'2:15'
p30
L3316L
sS'11:42'
p31
L2429L
sS'9:27'
p32
L2694L
sS'8:76'
p33
L2406L
sS'1:10'
p34
L4004L
sS'9:28'
p35
L2692L
sS'14:126'
p36
L2295L
sS'30:66'
p37
L2388L
sS'7:71'
p38
L2379L
sS'14:128'
p39
L2327L
sS'17:53'
p40
L2396L
sS'2:22'
p41
L2929L
sS'2:21'
p42
L3094L
sS'6:17'
p43
L3349L
sS'54:128'
p44
L2364L
sS'10:73'
p45
L2417L
sS'30:96'
p46
L2330L
sS'29:83'
p47
L2380L
sS'32:116'
p48
L2309L
sS'5:18'
p49
L3125L
sS'9:90'
p50
L2351L
sS'16:118'
p51
L2305L
sS'40:82'
p52
L2342L
sS'3:30'
p53
L2624L
sS'51:114'
p54
L2377L
sS'30:89'
p55
L2387L
sS'44:104'
p56
L2397L
sS'6:28'
p57
L2659L
sS'39:128'
p58
L2343L
sS'6:21'
p59
L2938L
sS'6:27'
p60
L2712L
sS'23:85'
p61
L2402L
sS'49:117'
p62
L2370L
sS'16:83'
p63
L2355L
sS'12:99'
p64
L2287L
sS'30:128'
p65
L2353L
sS'23:88'
p66
L2388L
sS'4:21'
p67
L2998L
sS'8:55'
p68
L2398L
sS'4:28'
p69
L2722L
sS'37:127'
p70
L2295L
sS'37:128'
p71
L2299L
sS'48:110'
p72
L2376L
sS'35:70'
p73
L2457L
sS'43:128'
p74
L2360L
sS'27:92'
p75
L2427L
sS'20:128'
p76
L2359L
sS'4:36'
p77
L2538L
sS'12:84'
p78
L2360L
sS'11:117'
p79
L2290L
sS'19:84'
p80
L2320L
sS'11:112'
p81
L2305L
sS'19:128'
p82
L2325L
sS'15:44'
p83
L2537L
sS'8:20'
p84
L3010L
sS'8:27'
p85
L2657L
sS'6:42'
p86
L2568L
sS'10:106'
p87
L2267L
sS'21:128'
p88
L2255L
sS'10:100'
p89
L2319L
sS'3:9'
p90
L4693L
sS'34:118'
p91
L2291L
sS'50:108'
p92
L2413L
sS'41:83'
p93
L2402L
sS'11:98'
p94
L2317L
sS'41:128'
p95
L2430L
sS'13:44'
p96
L2470L
sS'23:78'
p97
L2371L
sS'23:77'
p98
L2349L
sS'1:16'
p99
L3529L
sS'8:39'
p100
L2537L
sS'9:63'
p101
L2344L
sS'8:32'
p102
L2681L
sS'15:59'
p103
L2402L
sS'8:35'
p104
L2574L
sS'17:90'
p105
L2320L
sS'6:56'
p106
L2402L
sS'29:79'
p107
L2403L
sS'13:115'
p108
L2312L
sS'17:99'
p109
L2357L
sS'26:105'
p110
L2328L
sS'29:120'
p111
L2321L
sS'8:80'
p112
L2347L
sS'47:122'
p113
L2369L
sS'16:58'
p114
L2406L
sS'19:106'
p115
L2326L
sS'10:33'
p116
L2722L
sS'12:128'
p117
L2308L
sS'38:100'
p118
L2326L
sS'33:86'
p119
L2388L
sS'42:107'
p120
L2362L
sS'21:54'
p121
L2423L
sS'14:42'
p122
L2481L
sS'31:118'
p123
L2359L
sS'28:85'
p124
L2332L
sS'6:67'
p125
L2398L
sS'6:64'
p126
L2412L
sS'28:128'
p127
L2256L
sS'19:100'
p128
L2335L
sS'15:81'
p129
L2350L
sS'46:101'
p130
L2359L
sS'23:58'
p131
L2409L
sS'15:78'
p132
L2358L
sS'33:81'
p133
L2359L
sS'17:120'
p134
L2336L
sS'7:37'
p135
L2572L
sS'7:34'
p136
L2662L
sS'15:74'
p137
L2417L
sS'7:30'
p138
L2611L
s.