(dp0
S'14:99'
p1
L278L
sS'12:46'
p2
L320L
sS'10:50'
p3
L329L
sS'39:110'
p4
L371L
sS'14:103'
p5
L257L
sS'54:115'
p6
L478L
sS'22:63'
p7
L364L
sS'48:122'
p8
L467L
sS'18:42'
p9
L325L
sS'7:23'
p10
L257L
sS'3:10'
p11
L226L
sS'7:24'
p12
L255L
sS'1:8'
p13
L223L
sS'1:9'
p14
L222L
sS'11:37'
p15
L275L
sS'1:4'
p16
L272L
sS'28:128'
p17
L317L
sS'1:6'
p18
L243L
sS'1:7'
p19
L226L
sS'56:128'
p20
L534L
sS'13:82'
p21
L277L
sS'25:57'
p22
L371L
sS'11:29'
p23
L274L
sS'56:124'
p24
L499L
sS'29:90'
p25
L411L
sS'5:21'
p26
L249L
sS'21:60'
p27
L364L
sS'5:25'
p28
L238L
sS'34:89'
p29
L414L
sS'2:11'
p30
L224L
sS'2:10'
p31
L230L
sS'9:24'
p32
L291L
sS'7:73'
p33
L261L
sS'44:114'
p34
L449L
sS'2:27'
p35
L210L
sS'2:21'
p36
L239L
sS'6:13'
p37
L264L
sS'9:91'
p38
L241L
sS'9:97'
p39
L297L
sS'38:79'
p40
L407L
sS'3:37'
p41
L212L
sS'3:34'
p42
L204L
sS'51:117'
p43
L472L
sS'21:108'
p44
L292L
sS'45:93'
p45
L442L
sS'13:64'
p46
L338L
sS'6:21'
p47
L252L
sS'6:26'
p48
L256L
sS'10:66'
p49
L273L
sS'23:93'
p50
L423L
sS'14:39'
p51
L303L
sS'27:105'
p52
L296L
sS'4:26'
p53
L219L
sS'37:126'
p54
L396L
sS'6:22'
p55
L260L
sS'64:128'
p56
L521L
sS'32:64'
p57
L378L
sS'18:110'
p58
L296L
sS'16:71'
p59
L300L
sS'23:109'
p60
L280L
sS'25:71'
p61
L386L
sS'9:72'
p62
L275L
sS'17:83'
p63
L267L
sS'34:112'
p64
L340L
sS'34:110'
p65
L376L
sS'23:78'
p66
L322L
sS'59:126'
p67
L515L
sS'1:14'
p68
L203L
sS'8:33'
p69
L273L
sS'18:39'
p70
L300L
sS'14:51'
p71
L313L
sS'9:64'
p72
L257L
sS'28:74'
p73
L401L
sS'27:77'
p74
L387L
sS'8:83'
p75
L248L
sS'12:126'
p76
L268L
sS'47:94'
p77
L453L
sS'12:128'
p78
L270L
sS'21:59'
p79
L359L
sS'14:46'
p80
L319L
sS'4:14'
p81
L247L
sS'36:74'
p82
L393L
sS'29:64'
p83
L385L
sS'6:61'
p84
L267L
sS'16:41'
p85
L307L
sS'26:76'
p86
L389L
sS'46:106'
p87
L473L
sS'17:63'
p88
L375L
sS'33:91'
p89
L435L
sS'20:94'
p90
L419L
sS'14:79'
p91
L271L
sS'7:30'
p92
L273L
sS'7:31'
p93
L266L
s.