(dp0
S'13:35'
p1
L142L
sS'7:55'
p2
L100L
sS'39:106'
p3
L181L
sS'10:54'
p4
L104L
sS'15:94'
p5
L122L
sS'19:49'
p6
L153L
sS'9:94'
p7
L127L
sS'4:46'
p8
L100L
sS'23:49'
p9
L154L
sS'5:30'
p10
L88L
sS'14:65'
p11
L125L
sS'9:38'
p12
L105L
sS'17:72'
p13
L123L
sS'46:94'
p14
L205L
sS'22:66'
p15
L167L
sS'2:4'
p16
L126L
sS'3:18'
p17
L99L
sS'3:19'
p18
L98L
sS'3:15'
p19
L96L
sS'55:122'
p20
L238L
sS'3:10'
p21
L101L
sS'7:24'
p22
L103L
sS'1:9'
p23
L86L
sS'14:89'
p24
L104L
sS'45:117'
p25
L205L
sS'40:111'
p26
L174L
sS'21:91'
p27
L106L
sS'7:45'
p28
L108L
sS'1:4'
p29
L116L
sS'4:44'
p30
L102L
sS'1:6'
p31
L90L
sS'14:85'
p32
L100L
sS'10:42'
p33
L124L
sS'39:107'
p34
L190L
sS'19:59'
p35
L135L
sS'56:127'
p36
L241L
sS'27:85'
p37
L187L
sS'5:23'
p38
L113L
sS'55:115'
p39
L229L
sS'18:75'
p40
L132L
sS'54:123'
p41
L235L
sS'4:42'
p42
L113L
sS'4:43'
p43
L93L
sS'21:62'
p44
L154L
sS'2:10'
p45
L96L
sS'22:77'
p46
L133L
sS'4:48'
p47
L98L
sS'22:75'
p48
L134L
sS'1:12'
p49
L84L
sS'8:74'
p50
L101L
sS'5:54'
p51
L92L
sS'8:71'
p52
L109L
sS'8:70'
p53
L116L
sS'26:68'
p54
L172L
sS'7:79'
p55
L98L
sS'7:72'
p56
L108L
sS'7:73'
p57
L101L
sS'20:91'
p58
L101L
sS'21:77'
p59
L139L
sS'11:45'
p60
L114L
sS'27:109'
p61
L125L
sS'11:40'
p62
L118L
sS'13:96'
p63
L125L
sS'6:18'
p64
L111L
sS'17:58'
p65
L142L
sS'19:62'
p66
L148L
sS'10:75'
p67
L108L
sS'9:85'
p68
L93L
sS'13:74'
p69
L95L
sS'29:82'
p70
L182L
sS'29:87'
p71
L190L
sS'5:19'
p72
L110L
sS'5:17'
p73
L102L
sS'6:69'
p74
L90L
sS'9:97'
p75
L128L
sS'5:10'
p76
L119L
sS'15:117'
p77
L107L
sS'3:38'
p78
L89L
sS'3:39'
p79
L90L
sS'41:91'
p80
L196L
sS'3:32'
p81
L91L
sS'3:33'
p82
L91L
sS'3:30'
p83
L79L
sS'9:19'
p84
L119L
sS'3:36'
p85
L84L
sS'19:78'
p86
L104L
sS'39:87'
p87
L192L
sS'26:92'
p88
L176L
sS'13:69'
p89
L109L
sS'34:98'
p90
L188L
sS'30:120'
p91
L127L
sS'13:61'
p92
L109L
sS'25:72'
p93
L146L
sS'1:13'
p94
L85L
sS'3:25'
p95
L90L
sS'33:115'
p96
L136L
sS'3:26'
p97
L102L
sS'3:20'
p98
L104L
sS'15:34'
p99
L135L
sS'8:52'
p100
L102L
sS'26:80'
p101
L179L
sS'64:128'
p102
L247L
sS'2:9'
p103
L81L
sS'43:126'
p104
L180L
sS'24:58'
p105
L153L
sS'18:89'
p106
L110L
sS'11:115'
p107
L103L
sS'13:117'
p108
L106L
sS'11:111'
p109
L111L
sS'19:128'
p110
L112L
sS'9:37'
p111
L106L
sS'30:104'
p112
L125L
sS'37:111'
p113
L153L
sS'33:70'
p114
L174L
sS'30:102'
p115
L130L
sS'5:44'
p116
L106L
sS'10:107'
p117
L114L
sS'21:128'
p118
L118L
sS'50:102'
p119
L212L
sS'13:49'
p120
L133L
sS'8:49'
p121
L108L
sS'1:17'
p122
L80L
sS'13:122'
p123
L120L
sS'12:32'
p124
L129L
sS'24:68'
p125
L168L
sS'3:7'
p126
L118L
sS'41:87'
p127
L188L
sS'7:22'
p128
L127L
sS'18:128'
p129
L123L
sS'20:111'
p130
L137L
sS'16:64'
p131
L126L
sS'1:11'
p132
L81L
sS'16:63'
p133
L172L
sS'14:58'
p134
L124L
sS'14:55'
p135
L153L
sS'20:103'
p136
L112L
sS'14:53'
p137
L132L
sS'10:89'
p138
L100L
sS'13:50'
p139
L122L
sS'13:52'
p140
L132L
sS'11:42'
p141
L106L
sS'50:115'
p142
L221L
sS'8:83'
p143
L104L
sS'8:81'
p144
L103L
sS'6:46'
p145
L117L
sS'38:84'
p146
L181L
sS'32:84'
p147
L182L
sS'11:37'
p148
L117L
sS'5:58'
p149
L127L
sS'5:59'
p150
L104L
sS'5:50'
p151
L124L
sS'4:16'
p152
L108L
sS'15:63'
p153
L135L
sS'4:13'
p154
L107L
sS'2:8'
p155
L96L
sS'35:106'
p156
L152L
sS'35:101'
p157
L142L
sS'53:128'
p158
L195L
sS'28:86'
p159
L179L
sS'22:99'
p160
L142L
sS'29:62'
p161
L167L
sS'8:32'
p162
L114L
sS'50:128'
p163
L208L
sS'41:106'
p164
L179L
sS'1:7'
p165
L95L
sS'10:29'
p166
L119L
sS'41:126'
p167
L148L
sS'5:47'
p168
L121L
sS'15:73'
p169
L131L
sS'5:40'
p170
L83L
sS'9:46'
p171
L115L
sS'23:53'
p172
L160L
sS'5:22'
p173
L96L
sS'5:49'
p174
L108L
sS'7:39'
p175
L105L
sS'20:64'
p176
L162L
sS'7:33'
p177
L119L
sS'20:61'
p178
L166L
sS'15:77'
p179
L102L
s.