(dp0
S'27:128'
p1
L864L
sS'28:92'
p2
L900L
sS'14:97'
p3
L867L
sS'11:103'
p4
L871L
sS'20:87'
p5
L888L
sS'14:109'
p6
L880L
sS'19:48'
p7
L917L
sS'13:122'
p8
L864L
sS'14:113'
p9
L866L
sS'41:111'
p10
L884L
sS'26:124'
p11
L880L
sS'11:99'
p12
L841L
sS'24:108'
p13
L898L
sS'33:128'
p14
L886L
sS'13:113'
p15
L871L
sS'19:99'
p16
L882L
sS'40:128'
p17
L886L
sS'12:103'
p18
L855L
sS'48:126'
p19
L893L
sS'12:119'
p20
L877L
sS'9:32'
p21
L977L
sS'11:107'
p22
L864L
sS'49:125'
p23
L920L
sS'8:68'
p24
L892L
sS'3:13'
p25
L1213L
sS'21:99'
p26
L885L
sS'20:73'
p27
L892L
sS'19:95'
p28
L887L
sS'28:121'
p29
L897L
sS'28:120'
p30
L876L
sS'35:128'
p31
L889L
sS'58:121'
p32
L924L
sS'14:80'
p33
L905L
sS'25:116'
p34
L876L
sS'1:4'
p35
L3030L
sS'1:5'
p36
L2392L
sS'1:6'
p37
L1998L
sS'1:7'
p38
L1733L
sS'14:119'
p39
L875L
sS'20:97'
p40
L879L
sS'39:103'
p41
L926L
sS'18:123'
p42
L870L
sS'17:108'
p43
L874L
sS'14:110'
p44
L863L
sS'10:48'
p45
L899L
sS'14:115'
p46
L851L
sS'14:114'
p47
L853L
sS'14:117'
p48
L881L
sS'5:26'
p49
L1000L
sS'21:64'
p50
L890L
sS'27:120'
p51
L903L
sS'4:45'
p52
L908L
sS'13:111'
p53
L853L
sS'15:128'
p54
L884L
sS'5:24'
p55
L1015L
sS'15:125'
p56
L852L
sS'12:112'
p57
L862L
sS'22:70'
p58
L916L
sS'19:113'
p59
L878L
sS'14:108'
p60
L875L
sS'12:115'
p61
L858L
sS'2:14'
p62
L1194L
sS'16:108'
p63
L868L
sS'18:128'
p64
L876L
sS'9:24'
p65
L1026L
sS'61:122'
p66
L925L
sS'23:77'
p67
L910L
sS'25:128'
p68
L867L
sS'12:110'
p69
L867L
sS'14:120'
p70
L862L
sS'51:120'
p71
L895L
sS'28:117'
p72
L901L
sS'16:62'
p73
L897L
sS'8:82'
p74
L878L
sS'25:123'
p75
L873L
sS'44:94'
p76
L929L
sS'42:93'
p77
L959L
sS'25:126'
p78
L868L
sS'15:120'
p79
L859L
sS'13:112'
p80
L857L
sS'43:124'
p81
L892L
sS'26:84'
p82
L911L
sS'2:22'
p83
L1053L
sS'11:105'
p84
L867L
sS'13:114'
p85
L869L
sS'13:115'
p86
L875L
sS'19:61'
p87
L922L
sS'4:49'
p88
L893L
sS'13:88'
p89
L876L
sS'22:49'
p90
L919L
sS'31:65'
p91
L926L
sS'25:95'
p92
L905L
sS'9:98'
p93
L862L
sS'32:116'
p94
L879L
sS'15:116'
p95
L858L
sS'16:112'
p96
L849L
sS'16:111'
p97
L875L
sS'16:110'
p98
L879L
sS'36:99'
p99
L907L
sS'9:93'
p100
L882L
sS'13:108'
p101
L869L
sS'31:68'
p102
L916L
sS'9:94'
p103
L870L
sS'9:95'
p104
L880L
sS'13:29'
p105
L983L
sS'18:112'
p106
L872L
sS'23:128'
p107
L861L
sS'22:120'
p108
L886L
sS'40:89'
p109
L928L
sS'28:87'
p110
L903L
sS'3:34'
p111
L939L
sS'21:61'
p112
L895L
sS'31:114'
p113
L899L
sS'19:71'
p114
L910L
sS'30:82'
p115
L912L
sS'17:116'
p116
L868L
sS'16:125'
p117
L859L
sS'17:112'
p118
L890L
sS'11:56'
p119
L893L
sS'30:128'
p120
L873L
sS'39:128'
p121
L911L
sS'13:105'
p122
L864L
sS'13:104'
p123
L881L
sS'9:83'
p124
L887L
sS'13:106'
p125
L874L
sS'13:109'
p126
L853L
sS'11:118'
p127
L850L
sS'21:100'
p128
L875L
sS'30:121'
p129
L894L
sS'9:89'
p130
L868L
sS'12:114'
p131
L860L
sS'11:58'
p132
L885L
sS'11:119'
p133
L856L
sS'16:80'
p134
L900L
sS'3:27'
p135
L1008L
sS'10:108'
p136
L859L
sS'32:127'
p137
L915L
sS'32:128'
p138
L884L
sS'12:99'
p139
L852L
sS'14:34'
p140
L990L
sS'18:109'
p141
L888L
sS'45:98'
p142
L935L
sS'31:127'
p143
L878L
sS'11:115'
p144
L866L
sS'31:128'
p145
L865L
sS'11:104'
p146
L877L
sS'12:86'
p147
L875L
sS'14:124'
p148
L890L
sS'53:115'
p149
L899L
sS'6:31'
p150
L966L
sS'37:120'
p151
L890L
sS'56:114'
p152
L932L
sS'40:124'
p153
L889L
sS'6:39'
p154
L942L
sS'37:128'
p155
L899L
sS'17:102'
p156
L872L
sS'11:116'
p157
L868L
sS'14:121'
p158
L869L
sS'43:128'
p159
L898L
sS'11:112'
p160
L864L
sS'24:51'
p161
L937L
sS'34:80'
p162
L910L
sS'25:62'
p163
L914L
sS'21:116'
p164
L904L
sS'33:102'
p165
L906L
sS'18:117'
p166
L870L
sS'47:102'
p167
L931L
sS'12:111'
p168
L868L
sS'19:128'
p169
L866L
sS'11:114'
p170
L859L
sS'12:85'
p171
L867L
sS'38:128'
p172
L902L
sS'11:117'
p173
L888L
sS'11:110'
p174
L852L
sS'11:111'
p175
L863L
sS'12:82'
p176
L888L
sS'11:113'
p177
L857L
sS'23:109'
p178
L880L
sS'7:67'
p179
L892L
sS'10:96'
p180
L873L
sS'15:45'
p181
L932L
sS'7:60'
p182
L889L
sS'13:118'
p183
L870L
sS'15:46'
p184
L911L
sS'19:121'
p185
L885L
sS'10:91'
p186
L880L
sS'19:123'
p187
L878L
sS'19:127'
p188
L851L
sS'4:32'
p189
L939L
sS'12:121'
p190
L870L
sS'12:122'
p191
L877L
sS'49:128'
p192
L920L
sS'21:122'
p193
L875L
sS'10:109'
p194
L858L
sS'10:106'
p195
L881L
sS'14:128'
p196
L866L
sS'10:104'
p197
L867L
sS'10:105'
p198
L845L
sS'21:128'
p199
L863L
sS'10:103'
p200
L867L
sS'10:100'
p201
L856L
sS'10:101'
p202
L856L
sS'13:128'
p203
L861L
sS'11:78'
p204
L887L
sS'26:114'
p205
L885L
sS'11:101'
p206
L850L
sS'13:123'
p207
L872L
sS'17:82'
p208
L874L
sS'13:121'
p209
L867L
sS'13:120'
p210
L871L
sS'13:127'
p211
L869L
sS'11:109'
p212
L860L
sS'13:124'
p213
L855L
sS'20:118'
p214
L890L
sS'20:119'
p215
L910L
sS'19:116'
p216
L874L
sS'1:19'
p217
L1111L
sS'27:88'
p218
L900L
sS'18:127'
p219
L863L
sS'1:12'
p220
L1318L
sS'1:13'
p221
L1237L
sS'1:10'
p222
L1451L
sS'23:71'
p223
L904L
sS'20:115'
p224
L875L
sS'23:119'
p225
L875L
sS'1:15'
p226
L1196L
sS'34:75'
p227
L910L
sS'10:84'
p228
L863L
sS'20:42'
p229
L945L
sS'13:116'
p230
L870L
sS'15:58'
p231
L903L
sS'48:128'
p232
L895L
sS'14:50'
p233
L911L
sS'12:63'
p234
L881L
sS'17:97'
p235
L883L
sS'17:90'
p236
L879L
sS'30:116'
p237
L897L
sS'35:110'
p238
L882L
sS'22:117'
p239
L889L
sS'15:118'
p240
L876L
sS'13:59'
p241
L900L
sS'19:114'
p242
L876L
sS'26:103'
p243
L877L
sS'20:104'
p244
L865L
sS'29:128'
p245
L866L
sS'8:86'
p246
L874L
sS'33:95'
p247
L892L
sS'29:120'
p248
L886L
sS'8:83'
p249
L868L
sS'59:118'
p250
L903L
sS'12:123'
p251
L856L
sS'12:120'
p252
L871L
sS'8:85'
p253
L871L
sS'12:126'
p254
L854L
sS'12:127'
p255
L858L
sS'12:124'
p256
L900L
sS'12:125'
p257
L881L
sS'16:52'
p258
L918L
sS'12:128'
p259
L892L
sS'10:102'
p260
L862L
sS'30:60'
p261
L930L
sS'4:27'
p262
L997L
sS'4:18'
p263
L1112L
sS'10:107'
p264
L851L
sS'4:15'
p265
L1147L
sS'44:128'
p266
L918L
sS'5:56'
p267
L877L
sS'2:9'
p268
L1509L
sS'21:52'
p269
L925L
sS'16:97'
p270
L873L
sS'35:106'
p271
L891L
sS'36:77'
p272
L921L
sS'16:128'
p273
L862L
sS'14:118'
p274
L857L
sS'16:116'
p275
L866L
sS'53:127'
p276
L920L
sS'6:67'
p277
L874L
sS'22:107'
p278
L900L
sS'6:65'
p279
L887L
sS'42:128'
p280
L920L
sS'6:60'
p281
L896L
sS'53:120'
p282
L905L
sS'11:89'
p283
L865L
sS'9:99'
p284
L864L
sS'50:128'
p285
L922L
sS'50:124'
p286
L913L
sS'28:119'
p287
L881L
sS'10:97'
p288
L868L
sS'14:70'
p289
L888L
sS'9:46'
p290
L908L
sS'20:114'
p291
L881L
sS'54:108'
p292
L910L
sS'38:114'
p293
L915L
sS'17:127'
p294
L861L
sS'14:79'
p295
L902L
sS'11:108'
p296
L864L
sS'18:121'
p297
L870L
sS'13:102'
p298
L886L
sS'18:69'
p299
L912L
sS'7:36'
p300
L950L
sS'11:87'
p301
L872L
sS'15:73'
p302
L880L
sS'16:122'
p303
L855L
sS'7:33'
p304
L962L
sS'17:128'
p305
L880L
s.