(dp0
S'11:27'
p1
L121L
sS'13:33'
p2
L127L
sS'45:106'
p3
L213L
sS'42:115'
p4
L214L
sS'13:35'
p5
L138L
sS'37:85'
p6
L186L
sS'31:86'
p7
L185L
sS'28:94'
p8
L194L
sS'12:44'
p9
L148L
sS'12:45'
p10
L146L
sS'10:55'
p11
L150L
sS'10:54'
p12
L153L
sS'36:116'
p13
L223L
sS'13:41'
p14
L141L
sS'19:43'
p15
L147L
sS'3:10'
p16
L98L
sS'5:30'
p17
L114L
sS'5:32'
p18
L120L
sS'5:34'
p19
L130L
sS'2:5'
p20
L112L
sS'17:75'
p21
L180L
sS'24:81'
p22
L175L
sS'18:49'
p23
L147L
sS'3:18'
p24
L109L
sS'48:121'
p25
L232L
sS'3:14'
p26
L97L
sS'44:127'
p27
L240L
sS'21:70'
p28
L168L
sS'7:25'
p29
L117L
sS'3:11'
p30
L107L
sS'3:12'
p31
L101L
sS'3:13'
p32
L102L
sS'1:8'
p33
L95L
sS'28:126'
p34
L246L
sS'44:89'
p35
L191L
sS'42:107'
p36
L211L
sS'21:92'
p37
L193L
sS'1:4'
p38
L132L
sS'31:95'
p39
L201L
sS'1:6'
p40
L101L
sS'1:7'
p41
L102L
sS'10:42'
p42
L141L
sS'4:14'
p43
L105L
sS'25:55'
p44
L151L
sS'19:59'
p45
L157L
sS'12:31'
p46
L125L
sS'5:23'
p47
L114L
sS'5:22'
p48
L109L
sS'5:21'
p49
L111L
sS'18:74'
p50
L175L
sS'5:26'
p51
L112L
sS'18:71'
p52
L165L
sS'4:41'
p53
L137L
sS'2:12'
p54
L101L
sS'2:11'
p55
L101L
sS'2:10'
p56
L102L
sS'32:109'
p57
L213L
sS'24:92'
p58
L199L
sS'35:82'
p59
L179L
sS'9:24'
p60
L119L
sS'8:73'
p61
L170L
sS'12:75'
p62
L168L
sS'2:8'
p63
L99L
sS'26:68'
p64
L175L
sS'40:102'
p65
L204L
sS'10:56'
p66
L151L
sS'18:46'
p67
L144L
sS'19:69'
p68
L166L
sS'13:116'
p69
L221L
sS'11:40'
p70
L135L
sS'6:17'
p71
L105L
sS'6:16'
p72
L109L
sS'2:14'
p73
L101L
sS'4:19'
p74
L107L
sS'18:62'
p75
L162L
sS'5:19'
p76
L106L
sS'5:16'
p77
L109L
sS'5:14'
p78
L99L
sS'5:15'
p79
L108L
sS'33:121'
p80
L240L
sS'3:33'
p81
L130L
sS'3:30'
p82
L119L
sS'3:37'
p83
L128L
sS'3:34'
p84
L127L
sS'44:108'
p85
L214L
sS'17:114'
p86
L226L
sS'7:18'
p87
L104L
sS'6:28'
p88
L118L
sS'13:69'
p89
L167L
sS'6:22'
p90
L114L
sS'10:62'
p91
L158L
sS'6:21'
p92
L113L
sS'6:26'
p93
L120L
sS'6:24'
p94
L112L
sS'52:110'
p95
L210L
sS'3:25'
p96
L108L
sS'4:15'
p97
L103L
sS'32:75'
p98
L172L
sS'23:93'
p99
L192L
sS'49:112'
p100
L215L
sS'14:39'
p101
L135L
sS'25:99'
p102
L198L
sS'16:75'
p103
L174L
sS'4:20'
p104
L109L
sS'4:21'
p105
L111L
sS'11:52'
p106
L151L
sS'8:57'
p107
L152L
sS'6:34'
p108
L126L
sS'6:32'
p109
L127L
sS'17:105'
p110
L210L
sS'6:38'
p111
L137L
sS'28:58'
p112
L155L
sS'30:77'
p113
L176L
sS'11:65'
p114
L168L
sS'4:9'
p115
L108L
sS'25:63'
p116
L159L
sS'8:28'
p117
L118L
sS'12:84'
p118
L184L
sS'32:69'
p119
L169L
sS'30:75'
p120
L176L
sS'16:70'
p121
L169L
sS'20:123'
p122
L238L
sS'30:76'
p123
L174L
sS'23:108'
p124
L214L
sS'15:45'
p125
L142L
sS'9:30'
p126
L120L
sS'11:59'
p127
L160L
sS'8:25'
p128
L117L
sS'6:44'
p129
L147L
sS'3:8'
p130
L106L
sS'3:9'
p131
L109L
sS'26:118'
p132
L233L
sS'13:40'
p133
L135L
sS'41:84'
p134
L186L
sS'26:70'
p135
L175L
sS'3:17'
p136
L104L
sS'11:44'
p137
L141L
sS'1:12'
p138
L102L
sS'20:111'
p139
L224L
sS'23:71'
p140
L169L
sS'11:105'
p141
L209L
sS'1:15'
p142
L103L
sS'9:69'
p143
L165L
sS'7:15'
p144
L115L
sS'8:33'
p145
L124L
sS'14:51'
p146
L150L
sS'10:89'
p147
L188L
sS'13:56'
p148
L155L
sS'27:77'
p149
L175L
sS'13:53'
p150
L153L
sS'8:88'
p151
L199L
sS'8:87'
p152
L187L
sS'24:70'
p153
L170L
sS'33:89'
p154
L185L
sS'16:59'
p155
L159L
sS'37:128'
p156
L243L
sS'9:50'
p157
L155L
sS'9:51'
p158
L157L
sS'47:94'
p159
L209L
sS'12:128'
p160
L245L
sS'16:50'
p161
L144L
sS'16:56'
p162
L153L
sS'16:54'
p163
L154L
sS'2:7'
p164
L94L
sS'2:6'
p165
L119L
sS'20:50'
p166
L153L
sS'2:4'
p167
L130L
sS'25:82'
p168
L186L
sS'15:68'
p169
L174L
sS'21:55'
p170
L150L
sS'5:53'
p171
L152L
sS'4:17'
p172
L104L
sS'4:16'
p173
L116L
sS'21:51'
p174
L152L
sS'2:9'
p175
L108L
sS'4:12'
p176
L103L
sS'37:75'
p177
L181L
sS'6:66'
p178
L164L
sS'6:67'
p179
L168L
sS'6:60'
p180
L157L
sS'1:5'
p181
L113L
sS'10:25'
p182
L116L
sS'10:26'
p183
L120L
sS'10:27'
p184
L113L
sS'7:40'
p185
L134L
sS'15:79'
p186
L176L
sS'51:102'
p187
L206L
sS'7:38'
p188
L129L
sS'38:85'
p189
L186L
sS'14:73'
p190
L168L
sS'7:37'
p191
L128L
sS'7:35'
p192
L130L
sS'7:32'
p193
L119L
sS'33:83'
p194
L191L
sS'7:31'
p195
L118L
s.