(dp0
S'17:94'
p1
L131L
sS'40:107'
p2
L185L
sS'27:72'
p3
L121L
sS'29:77'
p4
L130L
sS'6:33'
p5
L93L
sS'9:96'
p6
L138L
sS'40:125'
p7
L158L
sS'12:60'
p8
L110L
sS'53:118'
p9
L160L
sS'39:89'
p10
L139L
sS'6:36'
p11
L94L
sS'22:82'
p12
L124L
sS'6:14'
p13
L100L
sS'41:113'
p14
L149L
sS'30:120'
p15
L168L
sS'23:92'
p16
L136L
sS'2:19'
p17
L85L
sS'16:92'
p18
L137L
sS'7:64'
p19
L111L
sS'16:50'
p20
L101L
sS'5:12'
p21
L98L
sS'17:69'
p22
L116L
sS'2:7'
p23
L87L
sS'9:79'
p24
L125L
sS'3:38'
p25
L94L
sS'2:4'
p26
L118L
sS'8:46'
p27
L101L
sS'49:103'
p28
L158L
sS'4:16'
p29
L105L
sS'8:48'
p30
L101L
sS'49:126'
p31
L175L
sS'7:20'
p32
L98L
sS'3:16'
p33
L85L
sS'3:17'
p34
L84L
sS'55:125'
p35
L159L
sS'7:27'
p36
L89L
sS'4:12'
p37
L87L
sS'40:116'
p38
L160L
sS'22:69'
p39
L117L
sS'35:124'
p40
L173L
sS'10:108'
p41
L148L
sS'53:128'
p42
L180L
sS'4:9'
p43
L109L
sS'7:44'
p44
L105L
sS'1:4'
p45
L89L
sS'1:5'
p46
L93L
sS'28:101'
p47
L147L
sS'31:117'
p48
L151L
sS'22:50'
p49
L112L
sS'15:103'
p50
L138L
sS'26:96'
p51
L145L
sS'13:43'
p52
L103L
sS'56:123'
p53
L177L
sS'13:41'
p54
L103L
sS'16:48'
p55
L111L
sS'8:57'
p56
L108L
sS'5:56'
p57
L103L
sS'36:94'
p58
L137L
sS'50:106'
p59
L171L
sS'38:91'
p60
L138L
sS'23:125'
p61
L170L
sS'18:125'
p62
L167L
sS'31:71'
p63
L135L
sS'23:53'
p64
L117L
sS'16:67'
p65
L115L
sS'17:63'
p66
L113L
sS'16:62'
p67
L118L
sS'15:50'
p68
L105L
sS'4:20'
p69
L83L
sS'4:28'
p70
L92L
sS'4:22'
p71
L87L
sS'25:55'
p72
L112L
sS'18:53'
p73
L107L
sS'9:60'
p74
L109L
sS'25:99'
p75
L140L
sS'27:128'
p76
L173L
s.