(dp0
S'29:73'
p1
L294L
sS'5:43'
p2
L247L
sS'27:73'
p3
L293L
sS'9:91'
p4
L328L
sS'6:30'
p5
L212L
sS'13:52'
p6
L279L
sS'12:43'
p7
L242L
sS'12:44'
p8
L257L
sS'17:96'
p9
L338L
sS'40:121'
p10
L379L
sS'13:90'
p11
L324L
sS'34:89'
p12
L314L
sS'2:22'
p13
L195L
sS'15:92'
p14
L318L
sS'28:128'
p15
L405L
sS'12:28'
p16
L236L
sS'24:51'
p17
L266L
sS'60:128'
p18
L409L
sS'41:114'
p19
L356L
sS'13:72'
p20
L291L
sS'19:43'
p21
L256L
sS'14:105'
p22
L350L
sS'41:102'
p23
L368L
sS'22:68'
p24
L290L
sS'8:85'
p25
L319L
sS'32:65'
p26
L305L
sS'5:18'
p27
L202L
sS'3:14'
p28
L178L
sS'15:110'
p29
L357L
sS'23:67'
p30
L286L
sS'2:14'
p31
L188L
sS'1:14'
p32
L176L
sS'24:81'
p33
L305L
sS'8:29'
p34
L210L
sS'44:121'
p35
L362L
sS'8:41'
p36
L233L
sS'3:18'
p37
L188L
sS'20:70'
p38
L291L
sS'4:14'
p39
L193L
sS'15:65'
p40
L301L
sS'22:84'
p41
L306L
sS'10:99'
p42
L337L
sS'4:10'
p43
L196L
sS'27:62'
p44
L275L
sS'12:75'
p45
L295L
sS'40:113'
p46
L369L
sS'29:59'
p47
L277L
sS'53:127'
p48
L401L
sS'17:117'
p49
L372L
sS'37:94'
p50
L321L
sS'1:4'
p51
L231L
sS'1:5'
p52
L219L
sS'13:59'
p53
L293L
sS'3:32'
p54
L216L
sS'43:113'
p55
L356L
sS'11:52'
p56
L261L
sS'15:101'
p57
L341L
sS'24:88'
p58
L318L
sS'36:124'
p59
L395L
sS'20:65'
p60
L281L
sS'30:69'
p61
L281L
sS'5:27'
p62
L203L
sS'38:95'
p63
L337L
sS'23:91'
p64
L327L
sS'21:118'
p65
L383L
sS'8:19'
p66
L205L
sS'2:11'
p67
L177L
sS'16:63'
p68
L300L
sS'5:51'
p69
L272L
sS'22:75'
p70
L294L
sS'14:37'
p71
L232L
sS'2:7'
p72
L187L
sS'4:21'
p73
L196L
sS'32:69'
p74
L290L
sS'34:122'
p75
L385L
sS'8:57'
p76
L273L
sS'18:38'
p77
L272L
sS'36:88'
p78
L322L
sS'15:77'
p79
L305L
s.