(dp0
S'45:104'
p1
L4604L
sS'11:26'
p2
L4751L
sS'38:107'
p3
L4614L
sS'42:115'
p4
L4741L
sS'27:59'
p5
L4667L
sS'13:35'
p6
L4756L
sS'28:96'
p7
L4676L
sS'27:55'
p8
L4715L
sS'25:56'
p9
L4640L
sS'45:108'
p10
L4616L
sS'39:113'
p11
L4730L
sS'23:46'
p12
L4715L
sS'16:32'
p13
L4739L
sS'52:122'
p14
L4681L
sS'45:90'
p15
L4617L
sS'14:34'
p16
L4718L
sS'41:117'
p17
L4638L
sS'48:103'
p18
L4642L
sS'63:128'
p19
L4620L
sS'52:128'
p20
L4653L
sS'56:116'
p21
L4594L
sS'54:115'
p22
L4595L
sS'46:98'
p23
L4592L
sS'5:33'
p24
L4874L
sS'44:93'
p25
L4583L
sS'54:110'
p26
L4544L
sS'54:112'
p27
L4665L
sS'56:118'
p28
L4635L
sS'46:93'
p29
L4553L
sS'22:65'
p30
L4731L
sS'46:97'
p31
L4623L
sS'55:128'
p32
L4663L
sS'9:37'
p33
L4767L
sS'20:71'
p34
L4771L
sS'7:23'
p35
L4890L
sS'55:125'
p36
L4628L
sS'8:69'
p37
L4879L
sS'21:75'
p38
L4778L
sS'18:45'
p39
L4748L
sS'1:8'
p40
L7197L
sS'1:9'
p41
L6778L
sS'39:79'
p42
L4575L
sS'40:124'
p43
L4677L
sS'42:89'
p44
L4596L
sS'40:85'
p45
L4570L
sS'30:61'
p46
L4661L
sS'4:9'
p47
L6337L
sS'37:97'
p48
L4697L
sS'42:87'
p49
L4579L
sS'1:4'
p50
L11791L
sS'38:91'
p51
L4617L
sS'1:6'
p52
L8330L
sS'29:58'
p53
L4652L
sS'39:97'
p54
L4610L
sS'56:128'
p55
L4639L
sS'10:46'
p56
L4860L
sS'39:85'
p57
L4657L
sS'59:121'
p58
L4538L
sS'10:45'
p59
L4836L
sS'39:108'
p60
L4643L
sS'19:53'
p61
L4713L
sS'50:102'
p62
L4574L
sS'55:115'
p63
L4652L
sS'4:44'
p64
L4980L
sS'55:117'
p65
L4551L
sS'55:110'
p66
L4597L
sS'55:111'
p67
L4663L
sS'2:13'
p68
L5895L
sS'12:111'
p69
L4834L
sS'2:10'
p70
L6601L
sS'61:128'
p71
L4629L
sS'57:122'
p72
L4581L
sS'35:71'
p73
L4632L
sS'57:114'
p74
L4551L
sS'9:22'
p75
L4866L
sS'9:21'
p76
L4884L
sS'61:122'
p77
L4677L
sS'61:123'
p78
L4640L
sS'61:124'
p79
L4621L
sS'25:128'
p80
L4829L
sS'40:104'
p81
L4642L
sS'1:11'
p82
L6377L
sS'53:106'
p83
L4657L
sS'30:85'
p84
L4676L
sS'52:112'
p85
L4559L
sS'30:66'
p86
L4669L
sS'41:98'
p87
L4647L
sS'21:86'
p88
L4912L
sS'44:117'
p89
L4701L
sS'54:111'
p90
L4596L
sS'60:121'
p91
L4586L
sS'60:120'
p92
L4667L
sS'48:110'
p93
L4560L
sS'43:101'
p94
L4613L
sS'52:104'
p95
L4565L
sS'52:105'
p96
L4618L
sS'52:106'
p97
L4571L
sS'52:107'
p98
L4600L
sS'30:93'
p99
L4710L
sS'36:77'
p100
L4652L
sS'6:15'
p101
L5309L
sS'26:62'
p102
L4665L
sS'25:94'
p103
L4769L
sS'28:57'
p104
L4687L
sS'40:86'
p105
L4638L
sS'23:128'
p106
L4910L
sS'44:100'
p107
L4582L
sS'49:100'
p108
L4567L
sS'35:96'
p109
L4690L
sS'40:88'
p110
L4614L
sS'3:37'
p111
L5052L
sS'49:106'
p112
L4602L
sS'3:35'
p113
L5046L
sS'44:108'
p114
L4673L
sS'19:77'
p115
L4747L
sS'33:102'
p116
L4682L
sS'44:101'
p117
L4582L
sS'28:81'
p118
L4665L
sS'44:103'
p119
L4602L
sS'44:102'
p120
L4540L
sS'48:99'
p121
L4604L
sS'44:106'
p122
L4612L
sS'11:57'
p123
L4822L
sS'30:128'
p124
L4740L
sS'46:99'
p125
L4632L
sS'52:118'
p126
L4615L
sS'47:102'
p127
L4592L
sS'10:62'
p128
L4819L
sS'52:114'
p129
L4645L
sS'6:27'
p130
L4906L
sS'39:89'
p131
L4568L
sS'6:25'
p132
L4912L
sS'3:25'
p133
L5142L
sS'31:77'
p134
L4692L
sS'32:123'
p135
L4785L
sS'62:128'
p136
L4673L
sS'47:100'
p137
L4611L
sS'32:70'
p138
L4658L
sS'32:128'
p139
L4801L
sS'43:98'
p140
L4555L
sS'36:88'
p141
L4656L
sS'47:101'
p142
L4620L
sS'3:28'
p143
L5054L
sS'45:98'
p144
L4611L
sS'35:89'
p145
L4619L
sS'50:128'
p146
L4716L
sS'43:90'
p147
L4567L
sS'15:38'
p148
L4787L
sS'56:113'
p149
L4600L
sS'56:112'
p150
L4585L
sS'8:65'
p151
L4788L
sS'56:115'
p152
L4653L
sS'53:111'
p153
L4611L
sS'51:107'
p154
L4616L
sS'46:96'
p155
L4545L
sS'17:40'
p156
L4720L
sS'16:43'
p157
L4750L
sS'51:103'
p158
L4504L
sS'37:128'
p159
L4800L
sS'53:118'
p160
L4576L
sS'48:111'
p161
L4625L
sS'24:54'
p162
L4708L
sS'29:101'
p163
L4659L
sS'39:94'
p164
L4601L
sS'64:128'
p165
L4651L
sS'35:75'
p166
L4664L
sS'39:99'
p167
L4601L
sS'45:91'
p168
L4645L
sS'55:114'
p169
L4615L
sS'13:51'
p170
L4795L
sS'17:36'
p171
L4740L
sS'17:37'
p172
L4763L
sS'51:109'
p173
L4663L
sS'47:105'
p174
L4598L
sS'43:86'
p175
L4596L
sS'33:105'
p176
L4710L
sS'38:125'
p177
L4809L
sS'43:88'
p178
L4639L
sS'30:72'
p179
L4659L
sS'58:121'
p180
L4619L
sS'16:72'
p181
L4740L
sS'15:41'
p182
L4706L
sS'47:95'
p183
L4564L
sS'49:103'
p184
L4660L
sS'8:20'
p185
L4953L
sS'25:70'
p186
L4661L
sS'8:24'
p187
L4789L
sS'8:27'
p188
L4774L
sS'16:80'
p189
L4783L
sS'53:107'
p190
L4605L
sS'37:104'
p191
L4613L
sS'48:108'
p192
L4671L
sS'30:102'
p193
L4690L
sS'32:76'
p194
L4655L
sS'7:76'
p195
L4812L
sS'53:109'
p196
L4590L
sS'30:109'
p197
L4684L
sS'28:69'
p198
L4660L
sS'62:126'
p199
L4618L
sS'58:119'
p200
L4597L
sS'41:89'
p201
L4601L
sS'50:100'
p202
L4586L
sS'50:101'
p203
L4555L
sS'26:116'
p204
L4742L
sS'50:105'
p205
L4628L
sS'32:124'
p206
L4879L
sS'41:82'
p207
L4611L
sS'26:119'
p208
L4792L
sS'46:102'
p209
L4683L
sS'26:70'
p210
L4625L
sS'58:116'
p211
L4602L
sS'47:114'
p212
L4571L
sS'48:96'
p213
L4559L
sS'59:128'
p214
L4644L
sS'42:84'
p215
L4620L
sS'43:103'
p216
L4632L
sS'38:99'
p217
L4688L
sS'3:22'
p218
L5193L
sS'27:80'
p219
L4694L
sS'49:99'
p220
L4546L
sS'49:98'
p221
L4622L
sS'34:74'
p222
L4605L
sS'34:76'
p223
L4590L
sS'34:71'
p224
L4691L
sS'34:72'
p225
L4643L
sS'20:49'
p226
L4710L
sS'9:61'
p227
L4873L
sS'34:79'
p228
L4716L
sS'46:124'
p229
L4680L
sS'29:70'
p230
L4602L
sS'28:74'
p231
L4746L
sS'6:56'
p232
L4873L
sS'48:100'
p233
L4537L
sS'52:109'
p234
L4631L
sS'37:105'
p235
L4670L
sS'29:78'
p236
L4804L
sS'13:59'
p237
L4809L
sS'52:108'
p238
L4635L
sS'45:128'
p239
L4669L
sS'57:119'
p240
L4583L
sS'20:103'
p241
L4721L
sS'54:108'
p242
L4623L
sS'60:128'
p243
L4744L
sS'24:74'
p244
L4738L
sS'24:75'
p245
L4643L
sS'51:105'
p246
L4574L
sS'54:109'
p247
L4612L
sS'8:83'
p248
L4837L
sS'46:114'
p249
L4730L
sS'47:121'
p250
L4676L
sS'16:59'
p251
L4757L
sS'47:99'
p252
L4609L
sS'44:89'
p253
L4559L
sS'38:104'
p254
L4661L
sS'47:94'
p255
L4555L
sS'30:103'
p256
L4678L
sS'32:83'
p257
L4634L
sS'8:33'
p258
L4846L
sS'52:110'
p259
L4549L
sS'48:104'
p260
L4544L
sS'51:104'
p261
L4566L
sS'4:14'
p262
L5451L
sS'4:16'
p263
L5279L
sS'4:11'
p264
L5873L
sS'40:99'
p265
L4569L
sS'26:54'
p266
L4669L
sS'37:74'
p267
L4667L
sS'29:69'
p268
L4709L
sS'38:77'
p269
L4652L
sS'59:119'
p270
L4565L
sS'48:98'
p271
L4560L
sS'53:124'
p272
L4597L
sS'26:58'
p273
L4687L
sS'29:62'
p274
L4630L
sS'53:108'
p275
L4548L
sS'41:104'
p276
L4609L
sS'49:127'
p277
L4625L
sS'41:106'
p278
L4587L
sS'10:23'
p279
L4813L
sS'48:97'
p280
L4525L
sS'57:115'
p281
L4581L
sS'10:28'
p282
L4985L
sS'16:49'
p283
L4755L
sS'47:98'
p284
L4594L
sS'41:88'
p285
L4609L
sS'5:47'
p286
L4971L
sS'5:41'
p287
L4979L
sS'50:103'
p288
L4605L
sS'8:18'
p289
L5029L
sS'33:90'
p290
L4667L
sS'23:57'
p291
L4717L
sS'23:56'
p292
L4682L
sS'33:94'
p293
L4609L
sS'23:54'
p294
L4774L
sS'15:78'
p295
L4758L
sS'38:84'
p296
L4604L
sS'57:128'
p297
L4607L
sS'51:102'
p298
L4552L
sS'49:107'
p299
L4548L
sS'20:69'
p300
L4756L
sS'7:36'
p301
L4841L
sS'36:128'
p302
L4842L
sS'42:100'
p303
L4631L
s.