(dp0
S'12:49'
p1
L2468L
sS'9:91'
p2
L2443L
sS'7:58'
p3
L2492L
sS'10:37'
p4
L2605L
sS'12:42'
p5
L2596L
sS'31:84'
p6
L2490L
sS'14:108'
p7
L2411L
sS'36:115'
p8
L2440L
sS'52:123'
p9
L2499L
sS'15:91'
p10
L2450L
sS'18:87'
p11
L2425L
sS'5:30'
p12
L2711L
sS'14:65'
p13
L2496L
sS'5:33'
p14
L2843L
sS'12:108'
p15
L2427L
sS'14:63'
p16
L2470L
sS'18:73'
p17
L2498L
sS'16:80'
p18
L2427L
sS'21:111'
p19
L2432L
sS'11:92'
p20
L2496L
sS'48:126'
p21
L2501L
sS'9:31'
p22
L2611L
sS'49:128'
p23
L2496L
sS'3:16'
p24
L3572L
sS'3:10'
p25
L4490L
sS'7:24'
p26
L2784L
sS'3:12'
p27
L3735L
sS'1:8'
p28
L5332L
sS'1:9'
p29
L5126L
sS'14:83'
p30
L2437L
sS'25:81'
p31
L2411L
sS'1:4'
p32
L12298L
sS'7:42'
p33
L2695L
sS'1:6'
p34
L6650L
sS'1:7'
p35
L5332L
sS'5:27'
p36
L2739L
sS'19:52'
p37
L2528L
sS'15:65'
p38
L2471L
sS'16:67'
p39
L2491L
sS'12:69'
p40
L2421L
sS'22:78'
p41
L2434L
sS'3:31'
p42
L2685L
sS'4:42'
p43
L2627L
sS'32:100'
p44
L2468L
sS'4:41'
p45
L2745L
sS'2:11'
p46
L4029L
sS'29:96'
p47
L2441L
sS'2:16'
p48
L3462L
sS'13:93'
p49
L2435L
sS'5:54'
p50
L2517L
sS'8:70'
p51
L2493L
sS'10:54'
p52
L2492L
sS'22:107'
p53
L2398L
sS'44:109'
p54
L2460L
sS'12:97'
p55
L2422L
sS'7:73'
p56
L2447L
sS'42:93'
p57
L2489L
sS'7:74'
p58
L2500L
sS'23:70'
p59
L2547L
sS'13:112'
p60
L2464L
sS'26:86'
p61
L2498L
sS'11:47'
p62
L2504L
sS'26:84'
p63
L2466L
sS'2:22'
p64
L3032L
sS'12:29'
p65
L2668L
sS'13:65'
p66
L2497L
sS'9:98'
p67
L2490L
sS'29:109'
p68
L2410L
sS'36:94'
p69
L2520L
sS'16:90'
p70
L2438L
sS'27:65'
p71
L2504L
sS'33:128'
p72
L2491L
sS'10:85'
p73
L2446L
sS'33:122'
p74
L2453L
sS'19:98'
p75
L2428L
sS'22:128'
p76
L2406L
sS'19:74'
p77
L2474L
sS'19:75'
p78
L2432L
sS'19:72'
p79
L2443L
sS'17:116'
p80
L2545L
sS'14:86'
p81
L2413L
sS'15:105'
p82
L2495L
sS'14:67'
p83
L2480L
sS'22:54'
p84
L2535L
sS'11:50'
p85
L2537L
sS'34:98'
p86
L2472L
sS'26:98'
p87
L2478L
sS'34:96'
p88
L2437L
sS'6:20'
p89
L3112L
sS'30:121'
p90
L2490L
sS'6:26'
p91
L2735L
sS'34:92'
p92
L2469L
sS'33:106'
p93
L2419L
sS'23:97'
p94
L2471L
sS'16:82'
p95
L2469L
sS'32:123'
p96
L2474L
sS'18:102'
p97
L2453L
sS'32:72'
p98
L2562L
sS'14:39'
p99
L2572L
sS'18:101'
p100
L2454L
sS'26:119'
p101
L2449L
sS'15:87'
p102
L2451L
sS'15:104'
p103
L2400L
sS'8:59'
p104
L2524L
sS'4:21'
p105
L2957L
sS'4:23'
p106
L2930L
sS'11:52'
p107
L2550L
sS'6:37'
p108
L2576L
sS'18:85'
p109
L2458L
sS'56:117'
p110
L2546L
sS'40:125'
p111
L2496L
sS'52:118'
p112
L2477L
sS'11:111'
p113
L2444L
sS'34:89'
p114
L2482L
sS'11:61'
p115
L2489L
sS'24:55'
p116
L2579L
sS'10:53'
p117
L2405L
sS'43:124'
p118
L2466L
sS'21:110'
p119
L2413L
sS'11:68'
p120
L2401L
sS'13:72'
p121
L2429L
sS'11:118'
p122
L2475L
sS'13:52'
p123
L2521L
sS'11:93'
p124
L2495L
sS'11:115'
p125
L2529L
sS'11:116'
p126
L2477L
sS'11:117'
p127
L2457L
sS'12:81'
p128
L2485L
sS'11:112'
p129
L2469L
sS'21:107'
p130
L2492L
sS'16:70'
p131
L2426L
sS'4:33'
p132
L2665L
sS'4:32'
p133
L2767L
sS'4:30'
p134
L2650L
sS'9:70'
p135
L2471L
sS'7:61'
p136
L2446L
sS'9:76'
p137
L2494L
sS'7:60'
p138
L2502L
sS'21:125'
p139
L2478L
sS'12:72'
p140
L2422L
sS'6:45'
p141
L2554L
sS'6:46'
p142
L2554L
sS'33:73'
p143
L2501L
sS'37:119'
p144
L2494L
sS'10:104'
p145
L2425L
sS'10:105'
p146
L2482L
sS'10:102'
p147
L2482L
sS'10:103'
p148
L2501L
sS'41:126'
p149
L2449L
sS'13:49'
p150
L2544L
sS'26:116'
p151
L2480L
sS'21:84'
p152
L2445L
sS'26:78'
p153
L2452L
sS'29:119'
p154
L2447L
sS'34:116'
p155
L2435L
sS'17:80'
p156
L2475L
sS'17:86'
p157
L2422L
sS'17:85'
p158
L2406L
sS'17:84'
p159
L2472L
sS'11:109'
p160
L2481L
sS'1:19'
p161
L3161L
sS'19:113'
p162
L2453L
sS'7:25'
p163
L2808L
sS'19:97'
p164
L2516L
sS'10:86'
p165
L2478L
sS'8:39'
p166
L2545L
sS'2:25'
p167
L2914L
sS'14:59'
p168
L2429L
sS'25:92'
p169
L2476L
sS'7:19'
p170
L3122L
sS'27:106'
p171
L2429L
sS'17:94'
p172
L2471L
sS'30:115'
p173
L2439L
sS'13:115'
p174
L2484L
sS'17:98'
p175
L2402L
sS'18:90'
p176
L2452L
sS'8:89'
p177
L2444L
sS'24:74'
p178
L2403L
sS'22:82'
p179
L2455L
sS'8:84'
p180
L2562L
sS'8:85'
p181
L2446L
sS'45:126'
p182
L2455L
sS'8:83'
p183
L2475L
sS'33:88'
p184
L2493L
sS'12:120'
p185
L2496L
sS'16:58'
p186
L2462L
sS'12:126'
p187
L2471L
sS'15:79'
p188
L2419L
sS'12:128'
p189
L2525L
sS'6:22'
p190
L2949L
sS'10:35'
p191
L2665L
sS'25:86'
p192
L2393L
sS'10:65'
p193
L2432L
sS'25:80'
p194
L2398L
sS'10:107'
p195
L2467L
sS'15:66'
p196
L2449L
sS'4:17'
p197
L3417L
sS'44:128'
p198
L2478L
sS'4:13'
p199
L3595L
sS'22:97'
p200
L2444L
sS'35:101'
p201
L2492L
sS'22:93'
p202
L2460L
sS'6:66'
p203
L2418L
sS'25:111'
p204
L2452L
sS'6:64'
p205
L2565L
sS'12:53'
p206
L2420L
sS'16:95'
p207
L2440L
sS'12:50'
p208
L2507L
sS'15:85'
p209
L2488L
sS'10:25'
p210
L2873L
sS'25:72'
p211
L2457L
sS'21:97'
p212
L2394L
sS'28:107'
p213
L2462L
sS'36:105'
p214
L2481L
sS'9:41'
p215
L2649L
sS'9:44'
p216
L2622L
sS'9:47'
p217
L2558L
sS'17:63'
p218
L2407L
sS'11:80'
p219
L2478L
sS'7:38'
p220
L2596L
sS'7:37'
p221
L2666L
sS'25:69'
p222
L2504L
sS'20:60'
p223
L2485L
s.