(dp0
S'7:51'
p1
L181L
sS'10:53'
p2
L185L
sS'20:86'
p3
L220L
sS'19:49'
p4
L185L
sS'11:46'
p5
L191L
sS'5:31'
p6
L135L
sS'17:72'
p7
L205L
sS'17:71'
p8
L213L
sS'54:118'
p9
L273L
sS'17:74'
p10
L191L
sS'9:37'
p11
L160L
sS'9:30'
p12
L146L
sS'3:39'
p13
L162L
sS'11:94'
p14
L241L
sS'3:14'
p15
L126L
sS'7:20'
p16
L157L
sS'3:16'
p17
L123L
sS'3:17'
p18
L136L
sS'3:10'
p19
L127L
sS'8:69'
p20
L199L
sS'3:13'
p21
L123L
sS'28:125'
p22
L275L
sS'1:9'
p23
L125L
sS'28:123'
p24
L276L
sS'42:103'
p25
L246L
sS'1:5'
p26
L137L
sS'1:6'
p27
L138L
sS'1:7'
p28
L130L
sS'10:40'
p29
L168L
sS'17:44'
p30
L179L
sS'19:58'
p31
L191L
sS'20:91'
p32
L226L
sS'25:59'
p33
L187L
sS'12:34'
p34
L162L
sS'5:51'
p35
L188L
sS'4:46'
p36
L163L
sS'5:22'
p37
L135L
sS'44:128'
p38
L283L
sS'5:27'
p39
L136L
sS'4:41'
p40
L173L
sS'2:13'
p41
L121L
sS'2:12'
p42
L138L
sS'2:11'
p43
L125L
sS'2:10'
p44
L141L
sS'2:16'
p45
L129L
sS'2:15'
p46
L122L
sS'2:14'
p47
L120L
sS'2:9'
p48
L143L
sS'16:35'
p49
L193L
sS'7:78'
p50
L207L
sS'5:28'
p51
L146L
sS'21:81'
p52
L208L
sS'7:74'
p53
L201L
sS'2:26'
p54
L144L
sS'2:24'
p55
L145L
sS'2:25'
p56
L143L
sS'2:22'
p57
L130L
sS'27:82'
p58
L275L
sS'2:20'
p59
L139L
sS'12:29'
p60
L163L
sS'19:63'
p61
L183L
sS'13:119'
p62
L276L
sS'19:67'
p63
L195L
sS'2:28'
p64
L144L
sS'31:66'
p65
L213L
sS'31:62'
p66
L206L
sS'9:92'
p67
L226L
sS'9:91'
p68
L223L
sS'5:13'
p69
L139L
sS'25:65'
p70
L200L
sS'8:43'
p71
L170L
sS'20:42'
p72
L189L
sS'8:45'
p73
L166L
sS'8:48'
p74
L177L
sS'3:37'
p75
L157L
sS'3:34'
p76
L156L
sS'3:35'
p77
L158L
sS'44:109'
p78
L250L
sS'2:18'
p79
L126L
sS'19:71'
p80
L195L
sS'44:101'
p81
L256L
sS'30:89'
p82
L219L
sS'11:56'
p83
L182L
sS'9:86'
p84
L217L
sS'39:81'
p85
L216L
sS'6:23'
p86
L140L
sS'6:20'
p87
L143L
sS'6:26'
p88
L146L
sS'24:48'
p89
L199L
sS'6:24'
p90
L145L
sS'3:25'
p91
L130L
sS'12:92'
p92
L228L
sS'3:27'
p93
L132L
sS'3:21'
p94
L135L
sS'3:20'
p95
L129L
sS'14:39'
p96
L176L
sS'3:22'
p97
L144L
sS'3:29'
p98
L143L
sS'31:79'
p99
L211L
sS'5:38'
p100
L155L
sS'4:26'
p101
L143L
sS'4:22'
p102
L135L
sS'6:34'
p103
L151L
sS'33:108'
p104
L250L
sS'10:22'
p105
L151L
sS'6:32'
p106
L139L
sS'2:7'
p107
L123L
sS'40:124'
p108
L281L
sS'6:38'
p109
L151L
sS'1:11'
p110
L132L
sS'10:62'
p111
L194L
sS'34:86'
p112
L216L
sS'27:74'
p113
L210L
sS'6:54'
p114
L191L
sS'3:18'
p115
L127L
sS'4:32'
p116
L147L
sS'15:47'
p117
L176L
sS'15:48'
p118
L174L
sS'8:22'
p119
L140L
sS'4:38'
p120
L161L
sS'6:47'
p121
L181L
sS'3:19'
p122
L125L
sS'3:15'
p123
L133L
sS'13:43'
p124
L171L
sS'3:7'
p125
L164L
sS'30:69'
p126
L200L
sS'3:23'
p127
L139L
sS'1:12'
p128
L122L
sS'1:13'
p129
L122L
sS'1:10'
p130
L130L
sS'14:38'
p131
L179L
sS'1:16'
p132
L137L
sS'17:52'
p133
L186L
sS'1:14'
p134
L128L
sS'1:15'
p135
L122L
sS'15:52'
p136
L169L
sS'8:39'
p137
L155L
sS'34:76'
p138
L216L
sS'8:32'
p139
L154L
sS'8:30'
p140
L136L
sS'9:66'
p141
L194L
sS'14:53'
p142
L179L
sS'8:34'
p143
L154L
sS'27:71'
p144
L212L
sS'1:8'
p145
L124L
sS'13:57'
p146
L182L
sS'29:77'
p147
L216L
sS'29:76'
p148
L220L
sS'29:74'
p149
L207L
sS'27:79'
p150
L218L
sS'27:78'
p151
L219L
sS'1:19'
p152
L136L
sS'59:118'
p153
L282L
sS'19:102'
p154
L235L
sS'9:54'
p155
L186L
sS'7:49'
p156
L177L
sS'9:51'
p157
L192L
sS'47:94'
p158
L259L
sS'3:24'
p159
L142L
sS'20:52'
p160
L185L
sS'2:6'
p161
L172L
sS'4:19'
p162
L144L
sS'4:18'
p163
L131L
sS'20:54'
p164
L186L
sS'4:16'
p165
L162L
sS'5:56'
p166
L182L
sS'4:10'
p167
L147L
sS'25:88'
p168
L229L
sS'2:8'
p169
L131L
sS'27:62'
p170
L194L
sS'31:118'
p171
L281L
sS'28:89'
p172
L229L
sS'28:88'
p173
L219L
sS'9:57'
p174
L183L
sS'1:4'
p175
L156L
sS'16:59'
p176
L188L
sS'6:60'
p177
L185L
sS'7:42'
p178
L159L
sS'29:81'
p179
L215L
sS'16:42'
p180
L179L
sS'16:43'
p181
L171L
sS'15:89'
p182
L224L
sS'17:68'
p183
L191L
sS'9:44'
p184
L174L
sS'33:96'
p185
L227L
sS'7:36'
p186
L158L
sS'7:37'
p187
L156L
sS'44:89'
p188
L235L
s.