(dp0
S'28:92'
p1
L2387L
sS'25:101'
p2
L2452L
sS'16:99'
p3
L2297L
sS'17:71'
p4
L2354L
sS'7:47'
p5
L2470L
sS'7:44'
p6
L2476L
sS'19:58'
p7
L2481L
sS'14:110'
p8
L2310L
sS'21:68'
p9
L2429L
sS'57:122'
p10
L2533L
sS'16:100'
p11
L2315L
sS'16:104'
p12
L2394L
sS'16:105'
p13
L2352L
sS'16:106'
p14
L2356L
sS'16:107'
p15
L2310L
sS'51:120'
p16
L2504L
sS'11:46'
p17
L2528L
sS'12:26'
p18
L2704L
sS'6:14'
p19
L3205L
sS'39:128'
p20
L2525L
sS'39:83'
p21
L2485L
sS'39:126'
p22
L2510L
sS'12:93'
p23
L2327L
sS'12:92'
p24
L2347L
sS'23:95'
p25
L2321L
sS'12:90'
p26
L2376L
sS'12:97'
p27
L2308L
sS'12:96'
p28
L2312L
sS'12:94'
p29
L2316L
sS'12:98'
p30
L2305L
sS'11:51'
p31
L2464L
sS'12:101'
p32
L2323L
sS'24:50'
p33
L2579L
sS'23:90'
p34
L2397L
sS'33:106'
p35
L2424L
sS'27:115'
p36
L2442L
sS'29:112'
p37
L2499L
sS'11:109'
p38
L2345L
sS'11:108'
p39
L2344L
sS'19:110'
p40
L2450L
sS'11:103'
p41
L2339L
sS'11:102'
p42
L2332L
sS'11:101'
p43
L2330L
sS'11:100'
p44
L2326L
sS'11:106'
p45
L2325L
sS'16:60'
p46
L2463L
sS'11:104'
p47
L2328L
sS'10:87'
p48
L2336L
sS'10:82'
p49
L2391L
sS'10:83'
p50
L2308L
sS'10:81'
p51
L2326L
sS'9:67'
p52
L2422L
sS'9:66'
p53
L2418L
sS'9:64'
p54
L2415L
sS'12:63'
p55
L2391L
sS'6:55'
p56
L2489L
sS'12:65'
p57
L2416L
sS'12:69'
p58
L2427L
sS'45:128'
p59
L2470L
sS'50:114'
p60
L2489L
sS'22:81'
p61
L2447L
sS'33:89'
p62
L2454L
sS'2:5'
p63
L5737L
sS'21:58'
p64
L2458L
sS'2:9'
p65
L4063L
sS'22:109'
p66
L2454L
sS'22:102'
p67
L2383L
sS'15:81'
p68
L2357L
sS'15:89'
p69
L2326L
sS'24:114'
p70
L2449L
sS'18:92'
p71
L2334L
sS'14:99'
p72
L2332L
sS'14:95'
p73
L2349L
sS'14:94'
p74
L2337L
sS'14:97'
p75
L2304L
sS'10:55'
p76
L2493L
sS'41:117'
p77
L2477L
sS'14:62'
p78
L2420L
sS'55:128'
p79
L2481L
sS'3:18'
p80
L3004L
sS'3:14'
p81
L3223L
sS'20:75'
p82
L2475L
sS'20:77'
p83
L2367L
sS'42:85'
p84
L2470L
sS'42:106'
p85
L2469L
sS'25:117'
p86
L2408L
sS'17:46'
p87
L2509L
sS'20:98'
p88
L2378L
sS'4:47'
p89
L2549L
sS'44:128'
p90
L2506L
sS'61:128'
p91
L2523L
sS'10:94'
p92
L2328L
sS'7:79'
p93
L2459L
sS'7:72'
p94
L2415L
sS'21:83'
p95
L2455L
sS'7:76'
p96
L2325L
sS'7:74'
p97
L2406L
sS'7:75'
p98
L2352L
sS'16:97'
p99
L2328L
sS'16:114'
p100
L2447L
sS'16:93'
p101
L2388L
sS'16:91'
p102
L2328L
sS'16:109'
p103
L2398L
sS'16:119'
p104
L2331L
sS'16:98'
p105
L2330L
sS'40:81'
p106
L2517L
sS'51:112'
p107
L2536L
sS'51:118'
p108
L2470L
sS'15:107'
p109
L2455L
sS'15:105'
p110
L2344L
sS'15:104'
p111
L2331L
sS'15:102'
p112
L2312L
sS'15:101'
p113
L2389L
sS'15:100'
p114
L2318L
sS'6:22'
p115
L2801L
sS'23:85'
p116
L2442L
sS'16:70'
p117
L2479L
sS'13:78'
p118
L2324L
sS'13:76'
p119
L2437L
sS'13:75'
p120
L2450L
sS'13:73'
p121
L2403L
sS'23:82'
p122
L2461L
sS'12:88'
p123
L2335L
sS'12:89'
p124
L2329L
sS'9:79'
p125
L2317L
sS'13:128'
p126
L2353L
sS'24:66'
p127
L2506L
sS'17:80'
p128
L2397L
sS'13:125'
p129
L2381L
sS'14:55'
p130
L2487L
sS'28:73'
p131
L2509L
sS'28:77'
p132
L2442L
sS'29:121'
p133
L2325L
sS'9:56'
p134
L2492L
sS'19:107'
p135
L2328L
sS'19:106'
p136
L2335L
sS'9:50'
p137
L2444L
sS'4:11'
p138
L3559L
sS'22:95'
p139
L2319L
sS'31:118'
p140
L2479L
sS'22:90'
p141
L2472L
sS'22:98'
p142
L2385L
sS'6:63'
p143
L2373L
sS'33:98'
p144
L2476L
sS'38:112'
p145
L2447L
sS'11:80'
p146
L2327L
sS'11:85'
p147
L2352L
sS'16:128'
p148
L2437L
sS'11:86'
p149
L2298L
sS'11:89'
p150
L2347L
sS'7:34'
p151
L2611L
sS'15:73'
p152
L2407L
sS'15:77'
p153
L2328L
sS'15:97'
p154
L2320L
sS'15:92'
p155
L2440L
sS'15:93'
p156
L2303L
sS'15:98'
p157
L2296L
sS'12:108'
p158
L2317L
sS'12:109'
p159
L2399L
sS'12:105'
p160
L2322L
sS'12:106'
p161
L2318L
sS'12:100'
p162
L2322L
sS'24:106'
p163
L2444L
sS'12:102'
p164
L2339L
sS'41:128'
p165
L2461L
sS'49:128'
p166
L2480L
sS'49:120'
p167
L2481L
sS'48:128'
p168
L2510L
sS'14:89'
p169
L2318L
sS'14:82'
p170
L2402L
sS'14:80'
p171
L2395L
sS'13:86'
p172
L2337L
sS'13:84'
p173
L2408L
sS'13:82'
p174
L2402L
sS'13:89'
p175
L2460L
sS'13:88'
p176
L2341L
sS'5:22'
p177
L2852L
sS'55:116'
p178
L2488L
sS'5:20'
p179
L2932L
sS'5:27'
p180
L2722L
sS'2:12'
p181
L3516L
sS'2:14'
p182
L3270L
sS'13:112'
p183
L2395L
sS'14:102'
p184
L2335L
sS'13:111'
p185
L2472L
sS'17:55'
p186
L2466L
sS'13:118'
p187
L2321L
sS'32:117'
p188
L2499L
sS'9:92'
p189
L2354L
sS'9:93'
p190
L2318L
sS'9:90'
p191
L2486L
sS'9:91'
p192
L2328L
sS'9:96'
p193
L2373L
sS'9:97'
p194
L2294L
sS'9:94'
p195
L2316L
sS'9:95'
p196
L2384L
sS'8:40'
p197
L2549L
sS'8:41'
p198
L2590L
sS'19:77'
p199
L2399L
sS'17:112'
p200
L2319L
sS'17:111'
p201
L2384L
sS'8:33'
p202
L2647L
sS'16:80'
p203
L2481L
sS'31:72'
p204
L2491L
sS'16:86'
p205
L2472L
sS'18:97'
p206
L2316L
sS'32:78'
p207
L2468L
sS'4:23'
p208
L2799L
sS'6:39'
p209
L2623L
sS'6:38'
p210
L2585L
sS'11:66'
p211
L2478L
sS'35:74'
p212
L2500L
sS'19:89'
p213
L2335L
sS'11:92'
p214
L2421L
sS'9:98'
p215
L2319L
sS'7:73'
p216
L2460L
sS'11:90'
p217
L2337L
sS'7:67'
p218
L2423L
sS'7:60'
p219
L2432L
sS'7:63'
p220
L2417L
sS'15:49'
p221
L2544L
sS'11:96'
p222
L2306L
sS'7:69'
p223
L2422L
sS'3:24'
p224
L2807L
sS'10:106'
p225
L2402L
sS'10:104'
p226
L2410L
sS'10:105'
p227
L2428L
sS'10:103'
p228
L2341L
sS'10:100'
p229
L2305L
sS'10:101'
p230
L2314L
sS'18:43'
p231
L2588L
sS'18:100'
p232
L2319L
sS'38:99'
p233
L2529L
sS'3:22'
p234
L2857L
sS'17:96'
p235
L2312L
sS'17:91'
p236
L2396L
sS'20:104'
p237
L2477L
sS'20:103'
p238
L2466L
sS'18:60'
p239
L2483L
sS'20:52'
p240
L2470L
sS'5:58'
p241
L2448L
sS'5:59'
p242
L2457L
sS'14:45'
p243
L2500L
sS'42:124'
p244
L2524L
sS'16:44'
p245
L2544L
sS'59:118'
p246
L2488L
sS'19:105'
p247
L2291L
sS'9:46'
p248
L2451L
sS'17:60'
p249
L2439L
sS'31:108'
p250
L2469L
sS'7:58'
p251
L2463L
sS'7:59'
p252
L2414L
sS'31:101'
p253
L2371L
sS'12:41'
p254
L2535L
sS'7:53'
p255
L2493L
sS'14:108'
p256
L2335L
sS'26:128'
p257
L2473L
sS'19:45'
p258
L2590L
sS'14:101'
p259
L2313L
sS'14:107'
p260
L2327L
sS'9:34'
p261
L2628L
sS'11:93'
p262
L2409L
sS'18:48'
p263
L2530L
sS'11:91'
p264
L2349L
sS'9:30'
p265
L2663L
sS'11:97'
p266
L2316L
sS'11:94'
p267
L2404L
sS'11:95'
p268
L2332L
sS'7:20'
p269
L2917L
sS'11:98'
p270
L2307L
sS'11:99'
p271
L2322L
sS'21:76'
p272
L2489L
sS'1:4'
p273
L8185L
sS'1:5'
p274
L6276L
sS'1:6'
p275
L5377L
sS'12:38'
p276
L2576L
sS'12:118'
p277
L2363L
sS'29:99'
p278
L2398L
sS'22:73'
p279
L2428L
sS'12:110'
p280
L2372L
sS'12:115'
p281
L2342L
sS'13:91'
p282
L2451L
sS'13:92'
p283
L2332L
sS'13:93'
p284
L2311L
sS'2:20'
p285
L2946L
sS'13:97'
p286
L2326L
sS'13:98'
p287
L2295L
sS'10:76'
p288
L2337L
sS'10:75'
p289
L2416L
sS'10:74'
p290
L2380L
sS'23:128'
p291
L2422L
sS'35:95'
p292
L2482L
sS'3:31'
p293
L2634L
sS'22:128'
p294
L2456L
sS'12:53'
p295
L2488L
sS'9:85'
p296
L2333L
sS'9:84'
p297
L2365L
sS'9:87'
p298
L2349L
sS'9:81'
p299
L2316L
sS'9:80'
p300
L2383L
sS'13:106'
p301
L2425L
sS'9:89'
p302
L2343L
sS'33:114'
p303
L2420L
sS'32:128'
p304
L2478L
sS'27:107'
p305
L2382L
sS'17:107'
p306
L2312L
sS'17:102'
p307
L2293L
sS'25:68'
p308
L2466L
sS'25:60'
p309
L2476L
sS'29:108'
p310
L2457L
sS'33:67'
p311
L2532L
sS'27:90'
p312
L2454L
sS'11:118'
p313
L2316L
sS'11:117'
p314
L2430L
sS'11:111'
p315
L2431L
sS'11:112'
p316
L2329L
sS'10:95'
p317
L2323L
sS'19:128'
p318
L2470L
sS'10:97'
p319
L2299L
sS'10:96'
p320
L2283L
sS'10:91'
p321
L2333L
sS'10:90'
p322
L2331L
sS'10:93'
p323
L2326L
sS'10:92'
p324
L2320L
sS'9:70'
p325
L2433L
sS'10:99'
p326
L2311L
sS'10:98'
p327
L2350L
sS'12:76'
p328
L2345L
sS'6:49'
p329
L2454L
sS'11:70'
p330
L2388L
sS'19:98'
p331
L2416L
sS'15:54'
p332
L2455L
sS'13:96'
p333
L2311L
sS'13:53'
p334
L2448L
sS'35:113'
p335
L2464L
sS'13:59'
p336
L2503L
sS'22:110'
p337
L2424L
sS'10:77'
p338
L2320L
sS'8:88'
p339
L2334L
sS'13:99'
p340
L2342L
sS'8:87'
p341
L2403L
sS'13:101'
p342
L2298L
sS'8:83'
p343
L2312L
sS'8:81'
p344
L2364L
sS'12:126'
p345
L2468L
sS'12:124'
p346
L2424L
sS'23:67'
p347
L2505L
sS'12:128'
p348
L2465L
sS'23:65'
p349
L2474L
sS'23:63'
p350
L2436L
sS'25:84'
p351
L2458L
sS'13:100'
p352
L2319L
sS'35:104'
p353
L2461L
sS'11:87'
p354
L2328L
sS'16:94'
p355
L2387L
sS'41:108'
p356
L2450L
sS'20:65'
p357
L2492L
sS'5:40'
p358
L2578L
sS'8:19'
p359
L2965L
sS'14:72'
p360
L2457L
sS'14:71'
p361
L2486L
sS'14:70'
p362
L2411L
sS'20:62'
p363
L2490L
s.