(dp0
S'12:49'
p1
L99L
sS'10:37'
p2
L94L
sS'45:108'
p3
L154L
sS'28:93'
p4
L130L
sS'9:97'
p5
L135L
sS'19:44'
p6
L105L
sS'2:26'
p7
L87L
sS'12:44'
p8
L106L
sS'5:30'
p9
L86L
sS'5:31'
p10
L86L
sS'5:33'
p11
L90L
sS'5:35'
p12
L94L
sS'17:71'
p13
L115L
sS'24:80'
p14
L118L
sS'9:33'
p15
L98L
sS'24:89'
p16
L128L
sS'3:17'
p17
L84L
sS'3:12'
p18
L92L
sS'31:99'
p19
L133L
sS'11:33'
p20
L98L
sS'7:49'
p21
L99L
sS'35:128'
p22
L164L
sS'11:39'
p23
L99L
sS'1:4'
p24
L92L
sS'1:5'
p25
L92L
sS'1:6'
p26
L84L
sS'10:42'
p27
L102L
sS'4:15'
p28
L86L
sS'32:105'
p29
L147L
sS'7:53'
p30
L97L
sS'36:123'
p31
L173L
sS'4:46'
p32
L98L
sS'2:19'
p33
L80L
sS'5:20'
p34
L84L
sS'4:42'
p35
L100L
sS'18:72'
p36
L119L
sS'5:25'
p37
L83L
sS'22:72'
p38
L116L
sS'2:11'
p39
L83L
sS'2:10'
p40
L87L
sS'2:15'
p41
L77L
sS'14:43'
p42
L105L
sS'9:26'
p43
L90L
sS'20:111'
p44
L138L
sS'38:98'
p45
L143L
sS'7:72'
p46
L114L
sS'7:71'
p47
L117L
sS'11:45'
p48
L100L
sS'26:84'
p49
L122L
sS'17:55'
p50
L101L
sS'6:17'
p51
L88L
sS'4:49'
p52
L97L
sS'10:73'
p53
L115L
sS'31:64'
p54
L112L
sS'32:112'
p55
L144L
sS'31:68'
p56
L118L
sS'16:98'
p57
L133L
sS'8:43'
p58
L100L
sS'8:47'
p59
L100L
sS'3:33'
p60
L99L
sS'3:36'
p61
L89L
sS'3:34'
p62
L89L
sS'30:64'
p63
L118L
sS'21:109'
p64
L146L
sS'11:50'
p65
L105L
sS'11:51'
p66
L102L
sS'6:23'
p67
L95L
sS'6:24'
p68
L90L
sS'1:13'
p69
L73L
sS'3:24'
p70
L82L
sS'3:26'
p71
L88L
sS'3:21'
p72
L79L
sS'31:73'
p73
L123L
sS'49:110'
p74
L147L
sS'14:37'
p75
L100L
sS'15:34'
p76
L105L
sS'4:25'
p77
L83L
sS'4:21'
p78
L84L
sS'6:37'
p79
L95L
sS'6:33'
p80
L89L
sS'39:92'
p81
L137L
sS'21:89'
p82
L130L
sS'35:76'
p83
L136L
sS'11:64'
p84
L110L
sS'18:114'
p85
L148L
sS'27:91'
p86
L134L
sS'38:125'
p87
L154L
sS'11:112'
p88
L146L
sS'19:128'
p89
L166L
sS'4:32'
p90
L90L
sS'8:22'
p91
L91L
sS'30:100'
p92
L151L
sS'6:47'
p93
L100L
sS'12:78'
p94
L123L
sS'48:106'
p95
L174L
sS'21:128'
p96
L165L
sS'10:103'
p97
L135L
sS'29:110'
p98
L147L
sS'26:79'
p99
L124L
sS'26:72'
p100
L116L
sS'3:7'
p101
L110L
sS'26:87'
p102
L127L
sS'16:69'
p103
L116L
sS'1:12'
p104
L77L
sS'19:93'
p105
L137L
sS'1:10'
p106
L78L
sS'1:11'
p107
L79L
sS'16:63'
p108
L118L
sS'27:82'
p109
L129L
sS'15:53'
p110
L102L
sS'8:38'
p111
L92L
sS'34:72'
p112
L131L
sS'8:33'
p113
L93L
sS'8:37'
p114
L94L
sS'9:66'
p115
L111L
sS'2:23'
p116
L87L
sS'12:63'
p117
L102L
sS'28:73'
p118
L123L
sS'17:90'
p119
L130L
sS'12:67'
p120
L116L
sS'1:9'
p121
L80L
sS'26:104'
p122
L143L
sS'6:44'
p123
L97L
sS'9:57'
p124
L103L
sS'19:107'
p125
L145L
sS'23:69'
p126
L113L
sS'10:32'
p127
L99L
sS'33:85'
p128
L124L
sS'20:52'
p129
L105L
sS'2:4'
p130
L115L
sS'5:52'
p131
L109L
sS'5:50'
p132
L106L
sS'4:10'
p133
L90L
sS'4:12'
p134
L85L
sS'6:68'
p135
L111L
sS'42:122'
p136
L162L
sS'33:78'
p137
L122L
sS'17:50'
p138
L100L
sS'12:53'
p139
L113L
sS'6:60'
p140
L108L
sS'28:82'
p141
L130L
sS'10:25'
p142
L104L
sS'10:22'
p143
L92L
sS'10:28'
p144
L94L
sS'17:69'
p145
L111L
sS'5:47'
p146
L99L
sS'9:44'
p147
L100L
sS'8:17'
p148
L97L
sS'9:46'
p149
L98L
sS'25:52'
p150
L111L
sS'7:38'
p151
L91L
sS'16:52'
p152
L107L
sS'7:36'
p153
L87L
sS'14:72'
p154
L116L
sS'20:63'
p155
L115L
s.