(dp0
S'13:33'
p1
L2396L
sS'28:99'
p2
L2380L
sS'12:40'
p3
L2351L
sS'28:97'
p4
L2328L
sS'31:105'
p5
L2372L
sS'12:45'
p6
L2354L
sS'9:97'
p7
L2359L
sS'10:51'
p8
L2348L
sS'19:44'
p9
L2426L
sS'14:101'
p10
L2333L
sS'19:43'
p11
L2366L
sS'5:31'
p12
L2411L
sS'5:33'
p13
L2394L
sS'6:26'
p14
L2438L
sS'17:72'
p15
L2321L
sS'17:73'
p16
L2329L
sS'14:69'
p17
L2318L
sS'14:114'
p18
L2424L
sS'18:48'
p19
L2338L
sS'3:16'
p20
L2649L
sS'18:46'
p21
L2347L
sS'3:13'
p22
L2770L
sS'5:23'
p23
L2454L
sS'5:20'
p24
L2472L
sS'7:47'
p25
L2350L
sS'25:116'
p26
L2365L
sS'7:43'
p27
L2353L
sS'28:128'
p28
L2412L
sS'1:7'
p29
L3568L
sS'10:41'
p30
L2350L
sS'20:91'
p31
L2362L
sS'12:30'
p32
L2389L
sS'15:128'
p33
L2409L
sS'4:46'
p34
L2371L
sS'4:47'
p35
L2352L
sS'2:18'
p36
L2615L
sS'29:94'
p37
L2341L
sS'4:40'
p38
L2380L
sS'39:91'
p39
L2342L
sS'22:77'
p40
L2329L
sS'16:108'
p41
L2348L
sS'19:92'
p42
L2357L
sS'1:10'
p43
L3205L
sS'7:71'
p44
L2347L
sS'7:76'
p45
L2327L
sS'7:75'
p46
L2311L
sS'27:86'
p47
L2353L
sS'2:22'
p48
L2513L
sS'6:16'
p49
L2519L
sS'19:61'
p50
L2329L
sS'5:25'
p51
L2459L
sS'30:94'
p52
L2351L
sS'29:86'
p53
L2480L
sS'9:90'
p54
L2336L
sS'9:91'
p55
L2341L
sS'5:12'
p56
L2702L
sS'9:69'
p57
L2367L
sS'16:118'
p58
L2384L
sS'3:39'
p59
L2364L
sS'6:67'
p60
L2332L
sS'3:35'
p61
L2379L
sS'32:119'
p62
L2398L
sS'17:115'
p63
L2530L
sS'11:56'
p64
L2331L
sS'45:92'
p65
L2363L
sS'21:101'
p66
L2360L
sS'10:64'
p67
L2328L
sS'6:25'
p68
L2421L
sS'3:26'
p69
L2450L
sS'27:108'
p70
L2368L
sS'3:20'
p71
L2561L
sS'18:91'
p72
L2334L
sS'27:102'
p73
L2348L
sS'4:25'
p74
L2450L
sS'4:26'
p75
L2433L
sS'15:30'
p76
L2383L
sS'8:54'
p77
L2329L
sS'40:97'
p78
L2345L
sS'15:39'
p79
L2362L
sS'6:34'
p80
L2427L
sS'21:118'
p81
L2377L
sS'11:65'
p82
L2329L
sS'43:118'
p83
L2406L
sS'25:63'
p84
L2331L
sS'26:61'
p85
L2318L
sS'30:78'
p86
L2340L
sS'38:121'
p87
L2384L
sS'12:88'
p88
L2328L
sS'11:115'
p89
L2361L
sS'11:77'
p90
L2319L
sS'12:65'
p91
L2341L
sS'11:113'
p92
L2373L
sS'9:78'
p93
L2312L
sS'4:35'
p94
L2385L
sS'4:33'
p95
L2391L
sS'8:20'
p96
L2420L
sS'9:71'
p97
L2311L
sS'10:67'
p98
L2335L
sS'21:125'
p99
L2391L
sS'30:106'
p100
L2347L
sS'37:117'
p101
L2381L
sS'6:48'
p102
L2341L
sS'10:107'
p103
L2365L
sS'10:105'
p104
L2359L
sS'10:28'
p105
L2409L
sS'21:69'
p106
L2318L
sS'9:70'
p107
L2306L
sS'17:89'
p108
L2339L
sS'8:21'
p109
L2413L
sS'50:109'
p110
L2359L
sS'13:44'
p111
L2332L
sS'1:19'
p112
L2613L
sS'1:12'
p113
L2904L
sS'3:10'
p114
L2983L
sS'16:64'
p115
L2321L
sS'11:100'
p116
L2368L
sS'29:113'
p117
L2431L
sS'15:50'
p118
L2339L
sS'9:68'
p119
L2313L
sS'14:58'
p120
L2339L
sS'14:55'
p121
L2325L
sS'15:58'
p122
L2318L
sS'8:35'
p123
L2369L
sS'17:95'
p124
L2336L
sS'29:70'
p125
L2324L
sS'30:114'
p126
L2385L
sS'20:107'
p127
L2370L
sS'8:88'
p128
L2337L
sS'12:27'
p129
L2394L
sS'8:87'
p130
L2353L
sS'22:80'
p131
L2329L
sS'12:121'
p132
L2398L
sS'10:109'
p133
L2385L
sS'32:83'
p134
L2339L
sS'2:7'
p135
L3388L
sS'5:51'
p136
L2350L
sS'18:74'
p137
L2322L
sS'31:119'
p138
L2383L
sS'1:4'
p139
L5708L
sS'12:54'
p140
L2336L
sS'12:53'
p141
L2330L
sS'6:60'
p142
L2307L
sS'10:25'
p143
L2369L
sS'41:109'
p144
L2369L
sS'16:48'
p145
L2327L
sS'46:102'
p146
L2361L
sS'8:56'
p147
L2349L
sS'24:116'
p148
L2367L
sS'3:8'
p149
L3192L
sS'23:55'
p150
L2363L
sS'17:122'
p151
L2430L
sS'18:51'
p152
L2329L
sS'18:52'
p153
L2328L
sS'18:54'
p154
L2321L
s.