(dp0
S'7:59'
p1
L3500L
sS'45:103'
p2
L3462L
sS'27:56'
p3
L3449L
sS'31:103'
p4
L3534L
sS'28:90'
p5
L3356L
sS'10:52'
p6
L3726L
sS'10:58'
p7
L3561L
sS'26:121'
p8
L3490L
sS'41:111'
p9
L3461L
sS'17:78'
p10
L3770L
sS'14:67'
p11
L3568L
sS'40:128'
p12
L3488L
sS'17:76'
p13
L3665L
sS'22:66'
p14
L3484L
sS'11:92'
p15
L3434L
sS'19:55'
p16
L3613L
sS'8:60'
p17
L3466L
sS'48:122'
p18
L3339L
sS'48:117'
p19
L3469L
sS'20:74'
p20
L3417L
sS'25:104'
p21
L3379L
sS'48:128'
p22
L3393L
sS'11:30'
p23
L4061L
sS'28:121'
p24
L3341L
sS'39:128'
p25
L3381L
sS'42:105'
p26
L3414L
sS'14:81'
p27
L3561L
sS'1:4'
p28
L24381L
sS'28:128'
p29
L3445L
sS'1:7'
p30
L10204L
sS'56:128'
p31
L3444L
sS'13:84'
p32
L3428L
sS'13:83'
p33
L3477L
sS'36:124'
p34
L3463L
sS'14:112'
p35
L3451L
sS'5:22'
p36
L4970L
sS'27:126'
p37
L3351L
sS'15:128'
p38
L3316L
sS'4:41'
p39
L4055L
sS'27:128'
p40
L3441L
sS'5:28'
p41
L3958L
sS'2:16'
p42
L5453L
sS'2:14'
p43
L5736L
sS'5:54'
p44
L3561L
sS'57:128'
p45
L3361L
sS'8:79'
p46
L3506L
sS'62:128'
p47
L3410L
sS'28:118'
p48
L3376L
sS'42:92'
p49
L3561L
sS'51:128'
p50
L3491L
sS'20:115'
p51
L3365L
sS'2:26'
p52
L4475L
sS'34:124'
p53
L3449L
sS'2:25'
p54
L4501L
sS'2:23'
p55
L4576L
sS'10:78'
p56
L3421L
sS'6:17'
p57
L5734L
sS'60:128'
p58
L3423L
sS'15:122'
p59
L3316L
sS'34:128'
p60
L3479L
sS'9:98'
p61
L3417L
sS'9:99'
p62
L3596L
sS'15:111'
p63
L3453L
sS'6:69'
p64
L3739L
sS'9:96'
p65
L3487L
sS'9:94'
p66
L3459L
sS'33:128'
p67
L3353L
sS'8:49'
p68
L3845L
sS'33:127'
p69
L3495L
sS'22:128'
p70
L3360L
sS'44:109'
p71
L3390L
sS'14:128'
p72
L3382L
sS'12:51'
p73
L3745L
sS'22:100'
p74
L3386L
sS'15:104'
p75
L3373L
sS'15:103'
p76
L3351L
sS'29:62'
p77
L3650L
sS'32:123'
p78
L3305L
sS'10:60'
p79
L3403L
sS'39:121'
p80
L3313L
sS'9:89'
p81
L3440L
sS'9:88'
p82
L3368L
sS'45:95'
p83
L3521L
sS'18:104'
p84
L3366L
sS'32:74'
p85
L3588L
sS'18:99'
p86
L3461L
sS'32:125'
p87
L3381L
sS'36:84'
p88
L3512L
sS'32:128'
p89
L3551L
sS'18:94'
p90
L3446L
sS'14:35'
p91
L4410L
sS'49:123'
p92
L3494L
sS'31:123'
p93
L3374L
sS'30:103'
p94
L3315L
sS'41:103'
p95
L3372L
sS'16:106'
p96
L3410L
sS'4:23'
p97
L4810L
sS'31:128'
p98
L3360L
sS'56:112'
p99
L3464L
sS'13:55'
p100
L3530L
sS'17:105'
p101
L3406L
sS'46:96'
p102
L3431L
sS'19:107'
p103
L3351L
sS'17:102'
p104
L3371L
sS'43:128'
p105
L3484L
sS'64:128'
p106
L3560L
sS'11:65'
p107
L3643L
sS'21:111'
p108
L3440L
sS'12:58'
p109
L3379L
sS'38:121'
p110
L3519L
sS'16:79'
p111
L3457L
sS'10:94'
p112
L3346L
sS'11:114'
p113
L3307L
sS'18:84'
p114
L3584L
sS'30:75'
p115
L3511L
sS'11:90'
p116
L3460L
sS'19:87'
p117
L3628L
sS'19:86'
p118
L3496L
sS'10:95'
p119
L3430L
sS'7:72'
p120
L3599L
sS'10:92'
p121
L3510L
sS'23:103'
p122
L3411L
sS'23:105'
p123
L3601L
sS'57:118'
p124
L3451L
sS'12:82'
p125
L3498L
sS'37:114'
p126
L3367L
sS'10:109'
p127
L3346L
sS'10:107'
p128
L3616L
sS'21:128'
p129
L3383L
sS'57:115'
p130
L3449L
sS'3:9'
p131
L9016L
sS'11:78'
p132
L3409L
sS'17:80'
p133
L3697L
sS'13:126'
p134
L3427L
sS'47:115'
p135
L3419L
sS'59:128'
p136
L3452L
sS'18:127'
p137
L3342L
sS'18:128'
p138
L3404L
sS'19:93'
p139
L3389L
sS'47:118'
p140
L3401L
sS'49:99'
p141
L3487L
sS'27:83'
p142
L3476L
sS'8:33'
p143
L4492L
sS'34:79'
p144
L3629L
sS'6:52'
p145
L3833L
sS'30:117'
p146
L3416L
sS'6:55'
p147
L3537L
sS'58:128'
p148
L3605L
sS'21:126'
p149
L3304L
sS'29:128'
p150
L3509L
sS'50:114'
p151
L3471L
sS'22:80'
p152
L3642L
sS'8:83'
p153
L3486L
sS'8:81'
p154
L3509L
sS'12:120'
p155
L3329L
sS'38:108'
p156
L3446L
sS'47:128'
p157
L3357L
sS'24:128'
p158
L3340L
sS'12:128'
p159
L3515L
sS'47:96'
p160
L3602L
sS'38:100'
p161
L3509L
sS'38:101'
p162
L3544L
sS'2:6'
p163
L12154L
sS'2:4'
p164
L21289L
sS'20:54'
p165
L3647L
sS'12:78'
p166
L3398L
sS'5:52'
p167
L3513L
sS'44:128'
p168
L3398L
sS'5:56'
p169
L3566L
sS'2:9'
p170
L9861L
sS'2:8'
p171
L10575L
sS'29:69'
p172
L3552L
sS'6:68'
p173
L3667L
sS'53:128'
p174
L3523L
sS'28:84'
p175
L3510L
sS'27:68'
p176
L3859L
sS'19:128'
p177
L3351L
sS'42:128'
p178
L3385L
sS'31:114'
p179
L3553L
sS'6:61'
p180
L3649L
sS'15:84'
p181
L3527L
sS'10:27'
p182
L4153L
sS'50:128'
p183
L3379L
sS'16:43'
p184
L4135L
sS'12:126'
p185
L3529L
sS'24:119'
p186
L3334L
sS'54:108'
p187
L3482L
sS'16:128'
p188
L3450L
sS'36:128'
p189
L3492L
sS'16:123'
p190
L3350L
sS'20:61'
p191
L3714L
sS'17:128'
p192
L3409L
s.