(dp0
S'29:89'
p1
L275L
sS'13:39'
p2
L243L
sS'11:29'
p3
L226L
sS'10:50'
p4
L243L
sS'10:57'
p5
L236L
sS'16:39'
p6
L222L
sS'5:36'
p7
L206L
sS'5:37'
p8
L202L
sS'7:29'
p9
L203L
sS'7:28'
p10
L217L
sS'9:37'
p11
L218L
sS'3:19'
p12
L176L
sS'8:63'
p13
L250L
sS'3:14'
p14
L172L
sS'3:15'
p15
L175L
sS'3:16'
p16
L175L
sS'3:17'
p17
L182L
sS'3:10'
p18
L196L
sS'7:24'
p19
L196L
sS'3:12'
p20
L209L
sS'18:45'
p21
L245L
sS'1:8'
p22
L183L
sS'1:9'
p23
L195L
sS'11:35'
p24
L232L
sS'7:49'
p25
L230L
sS'42:108'
p26
L326L
sS'42:84'
p27
L314L
sS'1:4'
p28
L226L
sS'1:5'
p29
L214L
sS'1:6'
p30
L196L
sS'1:7'
p31
L178L
sS'5:20'
p32
L185L
sS'12:39'
p33
L220L
sS'20:93'
p34
L286L
sS'10:45'
p35
L228L
sS'4:17'
p36
L192L
sS'3:22'
p37
L191L
sS'5:23'
p38
L191L
sS'4:47'
p39
L233L
sS'29:93'
p40
L280L
sS'8:49'
p41
L236L
sS'5:27'
p42
L195L
sS'5:26'
p43
L208L
sS'32:100'
p44
L290L
sS'2:13'
p45
L181L
sS'2:12'
p46
L194L
sS'2:11'
p47
L182L
sS'2:10'
p48
L236L
sS'2:17'
p49
L180L
sS'2:16'
p50
L182L
sS'2:15'
p51
L178L
sS'5:57'
p52
L233L
sS'24:90'
p53
L275L
sS'2:25'
p54
L185L
sS'9:20'
p55
L230L
sS'3:13'
p56
L184L
sS'5:29'
p57
L187L
sS'8:79'
p58
L262L
sS'9:28'
p59
L223L
sS'5:28'
p60
L189L
sS'44:94'
p61
L317L
sS'7:77'
p62
L251L
sS'1:17'
p63
L174L
sS'13:112'
p64
L316L
sS'17:51'
p65
L249L
sS'17:52'
p66
L252L
sS'26:84'
p67
L275L
sS'17:56'
p68
L237L
sS'6:18'
p69
L206L
sS'12:27'
p70
L257L
sS'6:15'
p71
L231L
sS'2:14'
p72
L177L
sS'6:13'
p73
L239L
sS'2:28'
p74
L190L
sS'2:29'
p75
L194L
sS'9:98'
p76
L288L
sS'9:99'
p77
L287L
sS'2:19'
p78
L183L
sS'16:91'
p79
L281L
sS'5:17'
p80
L201L
sS'5:15'
p81
L217L
sS'5:13'
p82
L214L
sS'15:117'
p83
L314L
sS'8:43'
p84
L223L
sS'22:122'
p85
L347L
sS'8:44'
p86
L231L
sS'3:32'
p87
L194L
sS'9:19'
p88
L239L
sS'3:34'
p89
L199L
sS'23:121'
p90
L347L
sS'2:18'
p91
L171L
sS'44:104'
p92
L318L
sS'2:20'
p93
L196L
sS'6:29'
p94
L196L
sS'13:69'
p95
L253L
sS'21:102'
p96
L296L
sS'6:20'
p97
L201L
sS'6:21'
p98
L208L
sS'6:26'
p99
L210L
sS'39:125'
p100
L336L
sS'10:67'
p101
L255L
sS'3:25'
p102
L181L
sS'16:81'
p103
L268L
sS'23:94'
p104
L285L
sS'3:21'
p105
L188L
sS'3:20'
p106
L182L
sS'3:23'
p107
L199L
sS'12:94'
p108
L310L
sS'14:34'
p109
L235L
sS'4:26'
p110
L194L
sS'4:21'
p111
L199L
sS'4:22'
p112
L199L
sS'8:50'
p113
L244L
sS'8:52'
p114
L264L
sS'6:36'
p115
L200L
sS'6:33'
p116
L207L
sS'17:101'
p117
L312L
sS'11:67'
p118
L254L
sS'35:78'
p119
L300L
sS'25:63'
p120
L255L
sS'13:72'
p121
L251L
sS'12:67'
p122
L253L
sS'1:13'
p123
L177L
sS'27:118'
p124
L331L
sS'23:85'
p125
L269L
sS'25:73'
p126
L263L
sS'18:84'
p127
L283L
sS'18:81'
p128
L266L
sS'4:35'
p129
L209L
sS'18:49'
p130
L251L
sS'15:45'
p131
L240L
sS'4:32'
p132
L200L
sS'7:63'
p133
L240L
sS'9:76'
p134
L257L
sS'8:27'
p135
L190L
sS'28:67'
p136
L263L
sS'4:31'
p137
L184L
sS'3:24'
p138
L184L
sS'6:49'
p139
L220L
sS'10:102'
p140
L290L
sS'30:109'
p141
L308L
sS'50:100'
p142
L339L
sS'3:9'
p143
L227L
sS'17:82'
p144
L271L
sS'17:81'
p145
L272L
sS'11:49'
p146
L225L
sS'2:26'
p147
L195L
sS'1:11'
p148
L177L
sS'38:94'
p149
L293L
sS'1:12'
p150
L176L
sS'30:63'
p151
L258L
sS'1:10'
p152
L175L
sS'11:100'
p153
L296L
sS'1:16'
p154
L171L
sS'2:24'
p155
L196L
sS'1:14'
p156
L165L
sS'23:118'
p157
L329L
sS'9:68'
p158
L248L
sS'7:18'
p159
L200L
sS'20:48'
p160
L256L
sS'15:58'
p161
L250L
sS'7:26'
p162
L214L
sS'3:31'
p163
L187L
sS'13:57'
p164
L230L
sS'12:28'
p165
L245L
sS'17:93'
p166
L292L
sS'37:107'
p167
L310L
sS'2:21'
p168
L185L
sS'1:15'
p169
L179L
sS'17:59'
p170
L243L
sS'13:66'
p171
L247L
sS'8:81'
p172
L266L
sS'19:101'
p173
L301L
sS'16:58'
p174
L251L
sS'38:88'
p175
L307L
sS'9:51'
p176
L252L
sS'24:128'
p177
L370L
sS'16:51'
p178
L236L
sS'23:60'
p179
L275L
sS'2:7'
p180
L196L
sS'5:52'
p181
L255L
sS'5:53'
p182
L236L
sS'15:65'
p183
L273L
sS'4:16'
p184
L241L
sS'4:11'
p185
L231L
sS'21:50'
p186
L274L
sS'2:9'
p187
L221L
sS'2:8'
p188
L204L
sS'6:68'
p189
L244L
sS'12:57'
p190
L239L
sS'12:55'
p191
L240L
sS'27:69'
p192
L282L
sS'6:60'
p193
L237L
sS'16:40'
p194
L232L
sS'10:21'
p195
L229L
sS'16:42'
p196
L253L
sS'15:82'
p197
L269L
sS'16:48'
p198
L240L
sS'11:43'
p199
L242L
sS'9:45'
p200
L239L
sS'8:17'
p201
L228L
sS'5:42'
p202
L225L
sS'17:60'
p203
L242L
sS'17:62'
p204
L252L
sS'15:75'
p205
L260L
sS'14:79'
p206
L267L
sS'24:60'
p207
L275L
sS'11:87'
p208
L272L
sS'7:37'
p209
L203L
sS'7:35'
p210
L205L
sS'7:32'
p211
L192L
sS'7:33'
p212
L219L
sS'7:30'
p213
L218L
s.