(dp0
S'12:48'
p1
L327L
sS'7:59'
p2
L356L
sS'8:30'
p3
L259L
sS'16:51'
p4
L324L
sS'15:92'
p5
L421L
sS'9:94'
p6
L438L
sS'19:43'
p7
L322L
sS'46:99'
p8
L454L
sS'7:29'
p9
L261L
sS'11:91'
p10
L419L
sS'3:19'
p11
L241L
sS'49:128'
p12
L521L
sS'3:14'
p13
L233L
sS'3:15'
p14
L230L
sS'3:16'
p15
L226L
sS'21:70'
p16
L375L
sS'7:25'
p17
L259L
sS'7:24'
p18
L261L
sS'7:26'
p19
L278L
sS'1:8'
p20
L235L
sS'1:9'
p21
L212L
sS'48:97'
p22
L443L
sS'7:49'
p23
L318L
sS'11:38'
p24
L298L
sS'1:4'
p25
L288L
sS'1:5'
p26
L273L
sS'1:6'
p27
L259L
sS'1:7'
p28
L219L
sS'13:87'
p29
L415L
sS'20:97'
p30
L420L
sS'1:19'
p31
L231L
sS'4:44'
p32
L300L
sS'25:57'
p33
L363L
sS'14:115'
p34
L479L
sS'14:117'
p35
L478L
sS'4:43'
p36
L305L
sS'18:77'
p37
L388L
sS'2:19'
p38
L239L
sS'2:18'
p39
L224L
sS'4:42'
p40
L312L
sS'54:125'
p41
L526L
sS'29:96'
p42
L426L
sS'2:13'
p43
L222L
sS'2:12'
p44
L232L
sS'5:24'
p45
L252L
sS'2:17'
p46
L231L
sS'2:16'
p47
L231L
sS'2:15'
p48
L213L
sS'2:14'
p49
L252L
sS'9:25'
p50
L266L
sS'9:21'
p51
L286L
sS'3:13'
p52
L245L
sS'24:98'
p53
L425L
sS'2:8'
p54
L260L
sS'5:28'
p55
L256L
sS'4:16'
p56
L261L
sS'44:97'
p57
L457L
sS'2:26'
p58
L272L
sS'26:86'
p59
L397L
sS'22:45'
p60
L354L
sS'2:25'
p61
L250L
sS'2:22'
p62
L246L
sS'1:14'
p63
L239L
sS'2:20'
p64
L237L
sS'13:97'
p65
L429L
sS'30:93'
p66
L424L
sS'17:59'
p67
L368L
sS'1:15'
p68
L223L
sS'9:39'
p69
L288L
sS'11:110'
p70
L454L
sS'5:17'
p71
L246L
sS'9:91'
p72
L416L
sS'16:99'
p73
L436L
sS'22:126'
p74
L509L
sS'3:39'
p75
L289L
sS'3:30'
p76
L249L
sS'13:71'
p77
L391L
sS'3:36'
p78
L272L
sS'30:128'
p79
L508L
sS'6:22'
p80
L260L
sS'6:23'
p81
L268L
sS'30:120'
p82
L491L
sS'10:64'
p83
L376L
sS'6:27'
p84
L259L
sS'3:25'
p85
L253L
sS'3:24'
p86
L248L
sS'35:88'
p87
L392L
sS'3:20'
p88
L238L
sS'3:23'
p89
L263L
sS'3:22'
p90
L236L
sS'2:10'
p91
L224L
sS'12:98'
p92
L434L
sS'2:21'
p93
L246L
sS'31:78'
p94
L390L
sS'15:34'
p95
L297L
sS'4:20'
p96
L233L
sS'4:21'
p97
L233L
sS'6:35'
p98
L277L
sS'6:33'
p99
L279L
sS'6:32'
p100
L270L
sS'40:126'
p101
L523L
sS'17:100'
p102
L450L
sS'64:128'
p103
L521L
sS'34:96'
p104
L423L
sS'13:74'
p105
L388L
sS'5:46'
p106
L321L
sS'18:116'
p107
L468L
sS'30:72'
p108
L390L
sS'12:80'
p109
L394L
sS'47:108'
p110
L459L
sS'4:35'
p111
L280L
sS'9:37'
p112
L287L
sS'7:61'
p113
L356L
sS'7:60'
p114
L359L
sS'4:30'
p115
L247L
sS'15:44'
p116
L312L
sS'10:104'
p117
L428L
sS'23:58'
p118
L361L
sS'63:127'
p119
L538L
sS'1:17'
p120
L224L
sS'38:92'
p121
L413L
sS'1:18'
p122
L222L
sS'3:17'
p123
L234L
sS'1:12'
p124
L225L
sS'1:13'
p125
L227L
sS'1:10'
p126
L233L
sS'1:11'
p127
L221L
sS'1:16'
p128
L221L
sS'19:69'
p129
L368L
sS'23:73'
p130
L397L
sS'16:61'
p131
L373L
sS'10:86'
p132
L402L
sS'8:38'
p133
L276L
sS'14:59'
p134
L354L
sS'52:104'
p135
L460L
sS'14:57'
p136
L342L
sS'4:38'
p137
L289L
sS'17:94'
p138
L421L
sS'6:51'
p139
L340L
sS'29:70'
p140
L377L
sS'6:55'
p141
L337L
sS'16:123'
p142
L501L
sS'26:102'
p143
L433L
sS'8:89'
p144
L415L
sS'8:86'
p145
L392L
sS'24:73'
p146
L379L
sS'19:104'
p147
L465L
sS'47:97'
p148
L447L
sS'2:7'
p149
L218L
sS'2:4'
p150
L312L
sS'5:52'
p151
L350L
sS'5:53'
p152
L338L
sS'14:45'
p153
L325L
sS'14:42'
p154
L326L
sS'5:57'
p155
L353L
sS'2:9'
p156
L243L
sS'4:12'
p157
L243L
sS'14:46'
p158
L315L
sS'37:79'
p159
L397L
sS'29:66'
p160
L384L
sS'22:99'
p161
L434L
sS'6:60'
p162
L349L
sS'6:61'
p163
L365L
sS'10:24'
p164
L258L
sS'16:47'
p165
L317L
sS'41:105'
p166
L447L
sS'10:23'
p167
L279L
sS'5:44'
p168
L305L
sS'9:42'
p169
L315L
sS'9:45'
p170
L315L
sS'2:24'
p171
L246L
sS'23:51'
p172
L367L
sS'23:54'
p173
L340L
sS'11:83'
p174
L396L
sS'10:31'
p175
L272L
sS'15:76'
p176
L385L
sS'7:31'
p177
L274L
s.