(dp0
S'37:127'
p1
L1026L
sS'11:24'
p2
L1090L
sS'11:23'
p3
L1086L
sS'56:118'
p4
L1026L
sS'42:93'
p5
L1022L
sS'27:81'
p6
L1022L
sS'11:47'
p7
L996L
sS'12:115'
p8
L1019L
sS'6:19'
p9
L1138L
sS'13:99'
p10
L1015L
sS'6:15'
p11
L1201L
sS'32:121'
p12
L1047L
sS'23:48'
p13
L1026L
sS'17:36'
p14
L1025L
sS'16:46'
p15
L995L
sS'29:81'
p16
L1000L
sS'21:56'
p17
L1002L
sS'6:13'
p18
L1264L
sS'30:79'
p19
L996L
sS'32:85'
p20
L1024L
sS'16:119'
p21
L1060L
sS'9:59'
p22
L1010L
sS'4:37'
p23
L1034L
sS'2:5'
p24
L2304L
sS'15:51'
p25
L997L
sS'8:21'
p26
L1143L
sS'4:16'
p27
L1225L
sS'18:47'
p28
L1034L
sS'1:9'
p29
L1660L
sS'12:43'
p30
L1014L
sS'36:74'
p31
L1007L
sS'27:75'
p32
L985L
sS'1:4'
p33
L3277L
sS'24:63'
p34
L1000L
sS'22:51'
p35
L990L
sS'21:108'
p36
L1020L
sS'38:121'
p37
L1128L
sS'39:82'
p38
L1000L
sS'39:81'
p39
L990L
sS'56:123'
p40
L1032L
sS'10:64'
p41
L1006L
sS'19:51'
p42
L994L
sS'9:41'
p43
L989L
sS'5:22'
p44
L1088L
sS'16:73'
p45
L1001L
sS'3:23'
p46
L1087L
sS'1:13'
p47
L1402L
sS'23:96'
p48
L1015L
sS'16:62'
p49
L986L
sS'9:87'
p50
L1014L
sS'2:15'
p51
L1242L
sS'18:92'
p52
L1009L
sS'4:26'
p53
L1060L
sS'25:96'
p54
L1017L
sS'7:17'
p55
L1177L
sS'7:36'
p56
L1016L
sS'34:78'
p57
L1015L
sS'43:114'
p58
L1023L
s.