(dp0
S'11:26'
p1
L5713L
sS'37:80'
p2
L5179L
sS'15:98'
p3
L5127L
sS'5:32'
p4
L5929L
sS'46:92'
p5
L5162L
sS'24:82'
p6
L5161L
sS'21:70'
p7
L5265L
sS'7:25'
p8
L6103L
sS'21:76'
p9
L5308L
sS'48:128'
p10
L5275L
sS'37:98'
p11
L5347L
sS'35:128'
p12
L5233L
sS'42:85'
p13
L5311L
sS'11:39'
p14
L5631L
sS'1:4'
p15
L24573L
sS'5:21'
p16
L6185L
sS'29:58'
p17
L5284L
sS'17:45'
p18
L5537L
sS'48:110'
p19
L5202L
sS'10:44'
p20
L5534L
sS'12:34'
p21
L5848L
sS'36:120'
p22
L5241L
sS'12:33'
p23
L5909L
sS'20:99'
p24
L5201L
sS'32:106'
p25
L5230L
sS'29:93'
p26
L5150L
sS'2:18'
p27
L7464L
sS'21:62'
p28
L5235L
sS'5:24'
p29
L6330L
sS'2:13'
p30
L7919L
sS'2:11'
p31
L8554L
sS'8:76'
p32
L5332L
sS'9:24'
p33
L6148L
sS'61:123'
p34
L5037L
sS'27:128'
p35
L5270L
sS'64:128'
p36
L5212L
sS'62:128'
p37
L5172L
sS'42:94'
p38
L5250L
sS'42:95'
p39
L5186L
sS'25:126'
p40
L5243L
sS'43:100'
p41
L5289L
sS'23:73'
p42
L5301L
sS'30:93'
p43
L5247L
sS'6:16'
p44
L7563L
sS'6:15'
p45
L7144L
sS'11:49'
p46
L5554L
sS'30:95'
p47
L5220L
sS'32:110'
p48
L5236L
sS'18:66'
p49
L5401L
sS'31:62'
p50
L5263L
sS'18:68'
p51
L5301L
sS'49:108'
p52
L5226L
sS'33:128'
p53
L5361L
sS'13:28'
p54
L5936L
sS'23:123'
p55
L5204L
sS'15:57'
p56
L5258L
sS'30:87'
p57
L5209L
sS'28:104'
p58
L5296L
sS'6:28'
p59
L5729L
sS'26:99'
p60
L5148L
sS'6:20'
p61
L6613L
sS'30:121'
p62
L5187L
sS'32:121'
p63
L5099L
sS'36:86'
p64
L5181L
sS'17:72'
p65
L5271L
sS'31:120'
p66
L5263L
sS'53:115'
p67
L5223L
sS'6:30'
p68
L5475L
sS'40:128'
p69
L5142L
sS'37:128'
p70
L5267L
sS'40:121'
p71
L5252L
sS'34:105'
p72
L5110L
sS'13:73'
p73
L5255L
sS'23:82'
p74
L5164L
sS'17:35'
p75
L5759L
sS'38:127'
p76
L5248L
sS'16:77'
p77
L5275L
sS'18:82'
p78
L5309L
sS'30:76'
p79
L5238L
sS'9:78'
p80
L5341L
sS'19:128'
p81
L5250L
sS'4:31'
p82
L5505L
sS'8:22'
p83
L6241L
sS'8:24'
p84
L6060L
sS'37:111'
p85
L5197L
sS'6:44'
p86
L5508L
sS'6:46'
p87
L5626L
sS'37:119'
p88
L5382L
sS'21:128'
p89
L5270L
sS'13:128'
p90
L5327L
sS'41:121'
p91
L5145L
sS'63:128'
p92
L5109L
sS'24:68'
p93
L5295L
sS'41:128'
p94
L5278L
sS'11:73'
p95
L5282L
sS'23:112'
p96
L5158L
sS'19:92'
p97
L5220L
sS'49:122'
p98
L5248L
sS'27:81'
p99
L5332L
sS'49:99'
p100
L5118L
sS'18:36'
p101
L5677L
sS'8:33'
p102
L5876L
sS'34:123'
p103
L5222L
sS'12:61'
p104
L5239L
sS'28:75'
p105
L5251L
sS'45:128'
p106
L5260L
sS'32:104'
p107
L5259L
sS'30:100'
p108
L5231L
sS'19:61'
p109
L5185L
sS'24:72'
p110
L5387L
sS'38:108'
p111
L5155L
sS'47:128'
p112
L5214L
sS'24:128'
p113
L5279L
sS'12:128'
p114
L5281L
sS'2:4'
p115
L22545L
sS'44:124'
p116
L5203L
sS'21:55'
p117
L5314L
sS'14:44'
p118
L5616L
sS'12:126'
p119
L5217L
sS'4:11'
p120
L8310L
sS'4:13'
p121
L7335L
sS'2:8'
p122
L11284L
sS'31:119'
p123
L5250L
sS'53:128'
p124
L5206L
sS'38:78'
p125
L5229L
sS'27:68'
p126
L5369L
sS'31:111'
p127
L5280L
sS'42:128'
p128
L5198L
sS'16:44'
p129
L5544L
sS'15:84'
p130
L5270L
sS'50:128'
p131
L5361L
sS'15:82'
p132
L5182L
sS'38:88'
p133
L5192L
sS'51:102'
p134
L5156L
sS'59:123'
p135
L5025L
sS'33:80'
p136
L5155L
sS'34:95'
p137
L5220L
sS'21:45'
p138
L5480L
sS'47:97'
p139
L5262L
s.