(dp0
S'11:23'
p1
L3863L
sS'31:101'
p2
L3739L
sS'13:39'
p3
L3884L
sS'12:45'
p4
L3759L
sS'28:90'
p5
L3769L
sS'31:80'
p6
L3741L
sS'39:116'
p7
L3773L
sS'15:93'
p8
L3777L
sS'20:82'
p9
L3743L
sS'41:113'
p10
L3820L
sS'5:31'
p11
L3852L
sS'24:109'
p12
L3788L
sS'5:35'
p13
L3917L
sS'5:37'
p14
L3926L
sS'22:66'
p15
L3820L
sS'21:79'
p16
L3711L
sS'49:122'
p17
L3791L
sS'48:97'
p18
L3742L
sS'11:35'
p19
L3916L
sS'28:122'
p20
L3823L
sS'11:38'
p21
L3899L
sS'31:91'
p22
L3742L
sS'1:4'
p23
L12232L
sS'31:95'
p24
L3716L
sS'40:118'
p25
L3829L
sS'25:51'
p26
L3754L
sS'36:128'
p27
L3783L
sS'17:40'
p28
L3857L
sS'10:48'
p29
L3775L
sS'5:23'
p30
L4051L
sS'2:13'
p31
L4821L
sS'2:12'
p32
L5263L
sS'22:70'
p33
L3771L
sS'4:48'
p34
L3757L
sS'9:25'
p35
L4026L
sS'61:123'
p36
L3785L
sS'14:128'
p37
L3809L
sS'22:45'
p38
L3912L
sS'17:55'
p39
L3738L
sS'6:13'
p40
L4441L
sS'34:128'
p41
L3856L
sS'16:113'
p42
L3754L
sS'5:18'
p43
L4206L
sS'15:110'
p44
L3763L
sS'9:90'
p45
L3748L
sS'31:84'
p46
L3778L
sS'8:41'
p47
L3801L
sS'3:36'
p48
L3888L
sS'28:106'
p49
L3768L
sS'26:91'
p50
L3739L
sS'15:103'
p51
L3726L
sS'33:92'
p52
L3746L
sS'15:101'
p53
L3748L
sS'10:63'
p54
L3740L
sS'24:49'
p55
L3794L
sS'10:67'
p56
L3739L
sS'32:77'
p57
L3743L
sS'16:82'
p58
L3731L
sS'16:85'
p59
L3740L
sS'14:39'
p60
L3854L
sS'14:53'
p61
L3742L
sS'8:39'
p62
L3821L
sS'64:128'
p63
L3743L
sS'43:124'
p64
L3825L
sS'26:67'
p65
L3775L
sS'25:65'
p66
L3820L
sS'41:90'
p67
L3747L
sS'16:79'
p68
L3710L
sS'28:76'
p69
L3728L
sS'23:87'
p70
L3732L
sS'30:71'
p71
L3755L
sS'12:71'
p72
L3804L
sS'21:126'
p73
L3803L
sS'6:45'
p74
L3810L
sS'13:128'
p75
L3809L
sS'11:79'
p76
L3720L
sS'41:82'
p77
L3743L
sS'41:83'
p78
L3773L
sS'3:6'
p79
L6726L
sS'16:69'
p80
L3728L
sS'59:125'
p81
L3756L
sS'16:67'
p82
L3733L
sS'30:61'
p83
L3705L
sS'19:94'
p84
L3747L
sS'30:65'
p85
L3777L
sS'46:128'
p86
L3828L
sS'34:77'
p87
L3784L
sS'34:70'
p88
L3786L
sS'15:55'
p89
L3757L
sS'46:127'
p90
L3812L
sS'13:50'
p91
L3741L
sS'12:64'
p92
L3770L
sS'8:81'
p93
L3758L
sS'12:125'
p94
L3817L
sS'47:94'
p95
L3744L
sS'12:128'
p96
L3830L
sS'2:6'
p97
L7189L
sS'5:53'
p98
L3834L
sS'14:44'
p99
L3867L
sS'2:9'
p100
L5679L
sS'19:39'
p101
L3901L
sS'27:68'
p102
L3734L
sS'36:78'
p103
L3746L
sS'26:59'
p104
L3710L
sS'18:51'
p105
L3748L
sS'36:100'
p106
L3717L
sS'10:20'
p107
L3911L
sS'1:6'
p108
L7678L
sS'21:47'
p109
L3768L
sS'50:124'
p110
L3781L
sS'10:45'
p111
L3775L
sS'5:44'
p112
L3811L
sS'23:58'
p113
L3704L
sS'8:19'
p114
L4023L
sS'24:117'
p115
L3764L
sS'11:80'
p116
L3712L
sS'20:67'
p117
L3724L
sS'14:72'
p118
L3741L
s.