(dp0
S'28:97'
p1
L920L
sS'28:95'
p2
L911L
sS'28:93'
p3
L923L
sS'25:101'
p4
L937L
sS'20:85'
p5
L918L
sS'16:37'
p6
L967L
sS'17:78'
p7
L939L
sS'17:79'
p8
L938L
sS'17:77'
p9
L924L
sS'8:62'
p10
L920L
sS'21:99'
p11
L921L
sS'21:98'
p12
L918L
sS'11:37'
p13
L973L
sS'21:91'
p14
L927L
sS'21:93'
p15
L907L
sS'25:103'
p16
L910L
sS'14:111'
p17
L909L
sS'14:110'
p18
L942L
sS'19:52'
p19
L933L
sS'21:61'
p20
L915L
sS'16:108'
p21
L907L
sS'9:26'
p22
L1010L
sS'32:94'
p23
L931L
sS'16:102'
p24
L915L
sS'23:121'
p25
L916L
sS'16:104'
p26
L921L
sS'32:90'
p27
L946L
sS'11:40'
p28
L937L
sS'6:16'
p29
L1138L
sS'34:128'
p30
L958L
sS'15:110'
p31
L921L
sS'30:87'
p32
L946L
sS'21:108'
p33
L921L
sS'21:109'
p34
L919L
sS'13:69'
p35
L949L
sS'21:102'
p36
L914L
sS'21:103'
p37
L913L
sS'21:100'
p38
L924L
sS'21:101'
p39
L929L
sS'21:106'
p40
L916L
sS'10:65'
p41
L937L
sS'21:104'
p42
L918L
sS'13:62'
p43
L927L
sS'12:93'
p44
L922L
sS'23:94'
p45
L918L
sS'12:97'
p46
L912L
sS'23:92'
p47
L913L
sS'12:95'
p48
L915L
sS'3:28'
p49
L1002L
sS'23:99'
p50
L910L
sS'24:103'
p51
L920L
sS'24:102'
p52
L929L
sS'15:102'
p53
L918L
sS'22:57'
p54
L923L
sS'27:74'
p55
L939L
sS'17:92'
p56
L913L
sS'27:112'
p57
L918L
sS'15:109'
p58
L926L
sS'33:74'
p59
L973L
sS'29:112'
p60
L920L
sS'26:77'
p61
L930L
sS'1:19'
p62
L1123L
sS'19:110'
p63
L919L
sS'16:67'
p64
L910L
sS'11:107'
p65
L927L
sS'11:106'
p66
L934L
sS'10:80'
p67
L919L
sS'9:63'
p68
L918L
sS'24:78'
p69
L909L
sS'9:61'
p70
L916L
sS'9:66'
p71
L906L
sS'12:68'
p72
L926L
sS'12:69'
p73
L953L
sS'22:89'
p74
L912L
sS'26:107'
p75
L912L
sS'22:82'
p76
L907L
sS'46:116'
p77
L945L
sS'33:80'
p78
L918L
sS'2:6'
p79
L1892L
sS'2:4'
p80
L2621L
sS'22:105'
p81
L919L
sS'22:104'
p82
L911L
sS'22:106'
p83
L921L
sS'22:100'
p84
L916L
sS'22:103'
p85
L926L
sS'15:85'
p86
L920L
sS'15:84'
p87
L916L
sS'15:87'
p88
L930L
sS'15:82'
p89
L911L
sS'21:96'
p90
L907L
sS'15:88'
p91
L924L
sS'24:114'
p92
L927L
sS'24:115'
p93
L913L
sS'24:110'
p94
L911L
sS'23:56'
p95
L938L
sS'14:99'
p96
L905L
sS'14:91'
p97
L921L
sS'10:57'
p98
L914L
sS'5:31'
p99
L978L
sS'5:36'
p100
L954L
sS'14:63'
p101
L903L
sS'20:79'
p102
L933L
sS'3:14'
p103
L1199L
sS'20:73'
p104
L917L
sS'20:74'
p105
L915L
sS'25:119'
p106
L918L
sS'25:115'
p107
L906L
sS'20:94'
p108
L913L
sS'20:90'
p109
L918L
sS'20:98'
p110
L916L
sS'20:99'
p111
L927L
sS'4:46'
p112
L944L
sS'5:51'
p113
L930L
sS'27:124'
p114
L946L
sS'14:41'
p115
L963L
sS'61:125'
p116
L955L
sS'21:89'
p117
L910L
sS'18:108'
p118
L911L
sS'21:83'
p119
L918L
sS'21:81'
p120
L915L
sS'21:84'
p121
L901L
sS'26:87'
p122
L915L
sS'19:67'
p123
L918L
sS'19:65'
p124
L934L
sS'16:97'
p125
L947L
sS'16:95'
p126
L919L
sS'18:64'
p127
L941L
sS'31:62'
p128
L950L
sS'16:99'
p129
L921L
sS'40:83'
p130
L939L
sS'40:81'
p131
L949L
sS'29:67'
p132
L941L
sS'15:107'
p133
L923L
sS'15:105'
p134
L911L
sS'22:55'
p135
L942L
sS'15:101'
p136
L920L
sS'15:100'
p137
L913L
sS'6:22'
p138
L1048L
sS'11:58'
p139
L942L
sS'15:108'
p140
L921L
sS'31:125'
p141
L953L
sS'18:87'
p142
L934L
sS'37:128'
p143
L946L
sS'16:70'
p144
L941L
sS'21:111'
p145
L918L
sS'21:110'
p146
L904L
sS'21:113'
p147
L910L
sS'21:112'
p148
L904L
sS'13:72'
p149
L916L
sS'21:114'
p150
L915L
sS'12:84'
p151
L928L
sS'23:108'
p152
L911L
sS'23:109'
p153
L948L
sS'23:102'
p154
L928L
sS'23:104'
p155
L928L
sS'23:105'
p156
L919L
sS'23:106'
p157
L914L
sS'23:107'
p158
L916L
sS'17:89'
p159
L914L
sS'17:88'
p160
L917L
sS'24:65'
p161
L918L
sS'17:80'
p162
L917L
sS'17:87'
p163
L921L
sS'58:117'
p164
L949L
sS'20:110'
p165
L910L
sS'20:111'
p166
L920L
sS'20:112'
p167
L902L
sS'8:38'
p168
L963L
sS'14:59'
p169
L911L
sS'23:57'
p170
L926L
sS'19:103'
p171
L922L
sS'19:102'
p172
L915L
sS'19:101'
p173
L911L
sS'19:100'
p174
L918L
sS'19:107'
p175
L930L
sS'19:106'
p176
L915L
sS'19:105'
p177
L912L
sS'19:104'
p178
L916L
sS'19:109'
p179
L922L
sS'19:108'
p180
L922L
sS'9:58'
p181
L914L
sS'4:11'
p182
L1330L
sS'4:13'
p183
L1227L
sS'4:12'
p184
L1262L
sS'22:97'
p185
L921L
sS'22:92'
p186
L912L
sS'6:69'
p187
L924L
sS'31:112'
p188
L923L
sS'31:110'
p189
L933L
sS'12:53'
p190
L921L
sS'12:52'
p191
L929L
sS'6:60'
p192
L920L
sS'11:81'
p193
L923L
sS'35:113'
p194
L956L
sS'15:76'
p195
L913L
sS'13:33'
p196
L984L
sS'13:36'
p197
L976L
sS'13:34'
p198
L972L
sS'13:35'
p199
L973L
sS'15:96'
p200
L911L
sS'36:112'
p201
L936L
sS'15:92'
p202
L916L
sS'15:93'
p203
L911L
sS'15:90'
p204
L923L
sS'15:91'
p205
L917L
sS'24:109'
p206
L926L
sS'24:108'
p207
L910L
sS'12:109'
p208
L917L
sS'12:104'
p209
L922L
sS'12:105'
p210
L921L
sS'24:107'
p211
L920L
sS'22:64'
p212
L938L
sS'24:105'
p213
L921L
sS'17:85'
p214
L909L
sS'14:88'
p215
L928L
sS'14:86'
p216
L914L
sS'14:87'
p217
L920L
sS'10:43'
p218
L938L
sS'27:81'
p219
L949L
sS'13:88'
p220
L931L
sS'5:20'
p221
L1077L
sS'2:10'
p222
L1419L
sS'2:14'
p223
L1242L
sS'24:96'
p224
L921L
sS'42:92'
p225
L943L
sS'9:93'
p226
L921L
sS'9:91'
p227
L917L
sS'26:125'
p228
L918L
sS'19:71'
p229
L909L
sS'19:72'
p230
L909L
sS'17:116'
p231
L944L
sS'19:78'
p232
L902L
sS'17:112'
p233
L908L
sS'17:113'
p234
L937L
sS'19:79'
p235
L933L
sS'26:91'
p236
L909L
sS'25:79'
p237
L928L
sS'34:96'
p238
L919L
sS'25:73'
p239
L941L
sS'31:77'
p240
L936L
sS'16:82'
p241
L928L
sS'18:105'
p242
L922L
sS'18:102'
p243
L916L
sS'18:103'
p244
L921L
sS'18:100'
p245
L916L
sS'18:101'
p246
L900L
sS'18:95'
p247
L912L
sS'18:94'
p248
L923L
sS'18:97'
p249
L933L
sS'18:96'
p250
L905L
sS'18:91'
p251
L914L
sS'18:90'
p252
L944L
sS'18:93'
p253
L907L
sS'18:109'
p254
L906L
sS'4:21'
p255
L1076L
sS'4:22'
p256
L1045L
sS'6:34'
p257
L994L
sS'11:62'
p258
L919L
sS'26:99'
p259
L918L
sS'29:76'
p260
L940L
sS'19:89'
p261
L922L
sS'19:81'
p262
L924L
sS'10:64'
p263
L914L
sS'19:83'
p264
L919L
sS'19:82'
p265
L918L
sS'19:87'
p266
L911L
sS'21:107'
p267
L915L
sS'15:47'
p268
L949L
sS'21:105'
p269
L916L
sS'23:97'
p270
L925L
sS'16:109'
p271
L931L
sS'10:106'
p272
L922L
sS'10:100'
p273
L947L
sS'13:48'
p274
L935L
sS'41:82'
p275
L933L
sS'22:111'
p276
L913L
sS'18:98'
p277
L909L
sS'23:116'
p278
L919L
sS'23:115'
p279
L922L
sS'23:114'
p280
L907L
sS'23:112'
p281
L911L
sS'23:75'
p282
L902L
sS'38:98'
p283
L930L
sS'26:103'
p284
L925L
sS'23:118'
p285
L902L
sS'25:93'
p286
L960L
sS'17:94'
p287
L905L
sS'17:95'
p288
L944L
sS'17:96'
p289
L912L
sS'17:97'
p290
L910L
sS'17:90'
p291
L913L
sS'17:91'
p292
L925L
sS'30:115'
p293
L904L
sS'17:99'
p294
L914L
sS'20:107'
p295
L916L
sS'20:106'
p296
L922L
sS'20:105'
p297
L901L
sS'20:104'
p298
L924L
sS'20:103'
p299
L908L
sS'20:102'
p300
L926L
sS'20:101'
p301
L912L
sS'18:92'
p302
L921L
sS'20:109'
p303
L913L
sS'20:108'
p304
L918L
sS'5:58'
p305
L908L
sS'14:48'
p306
L929L
sS'14:49'
p307
L943L
sS'5:53'
p308
L942L
sS'20:59'
p309
L908L
sS'5:55'
p310
L946L
sS'28:89'
p311
L937L
sS'28:80'
p312
L935L
sS'9:48'
p313
L930L
sS'11:26'
p314
L991L
sS'11:24'
p315
L1021L
sS'14:108'
p316
L911L
sS'19:49'
p317
L932L
sS'14:100'
p318
L917L
sS'14:107'
p319
L928L
sS'14:104'
p320
L919L
sS'14:105'
p321
L922L
sS'9:31'
p322
L985L
sS'11:99'
p323
L907L
sS'21:77'
p324
L903L
sS'18:44'
p325
L950L
sS'1:8'
p326
L1665L
sS'37:96'
p327
L927L
sS'1:4'
p328
L3103L
sS'1:5'
p329
L2381L
sS'12:35'
p330
L961L
sS'12:31'
p331
L985L
sS'4:40'
p332
L977L
sS'22:76'
p333
L947L
sS'22:77'
p334
L926L
sS'12:115'
p335
L918L
sS'2:24'
p336
L1051L
sS'2:23'
p337
L1043L
sS'2:21'
p338
L1082L
sS'10:77'
p339
L924L
sS'30:92'
p340
L922L
sS'10:73'
p341
L936L
sS'10:72'
p342
L908L
sS'2:28'
p343
L1005L
sS'30:94'
p344
L927L
sS'22:93'
p345
L919L
sS'3:33'
p346
L991L
sS'3:35'
p347
L983L
sS'22:99'
p348
L915L
sS'13:106'
p349
L925L
sS'13:109'
p350
L918L
sS'33:116'
p351
L925L
sS'27:109'
p352
L910L
sS'32:128'
p353
L947L
sS'27:105'
p354
L939L
sS'8:53'
p355
L930L
sS'17:107'
p356
L916L
sS'17:101'
p357
L920L
sS'17:100'
p358
L918L
sS'17:103'
p359
L918L
sS'17:102'
p360
L910L
sS'29:106'
p361
L929L
sS'34:81'
p362
L952L
sS'29:109'
p363
L915L
sS'34:84'
p364
L935L
sS'25:66'
p365
L919L
sS'18:111'
p366
L918L
sS'18:110'
p367
L912L
sS'18:88'
p368
L916L
sS'18:86'
p369
L928L
sS'11:115'
p370
L927L
sS'18:85'
p371
L919L
sS'18:82'
p372
L904L
sS'18:83'
p373
L901L
sS'18:80'
p374
L910L
sS'18:81'
p375
L934L
sS'4:35'
p376
L971L
sS'19:121'
p377
L919L
sS'9:75'
p378
L907L
sS'7:71'
p379
L915L
sS'50:103'
p380
L958L
sS'26:110'
p381
L928L
sS'11:75'
p382
L907L
sS'11:71'
p383
L922L
sS'34:110'
p384
L967L
sS'19:99'
p385
L903L
sS'19:91'
p386
L910L
sS'19:96'
p387
L908L
sS'19:97'
p388
L908L
sS'19:95'
p389
L915L
sS'15:52'
p390
L933L
sS'15:59'
p391
L932L
sS'13:51'
p392
L932L
sS'29:74'
p393
L936L
sS'22:116'
p394
L916L
sS'22:112'
p395
L921L
sS'22:113'
p396
L930L
sS'37:100'
p397
L937L
sS'13:99'
p398
L919L
sS'12:122'
p399
L935L
sS'24:124'
p400
L923L
sS'12:128'
p401
L940L
sS'23:63'
p402
L912L
sS'25:85'
p403
L946L
sS'35:107'
p404
L915L
sS'35:100'
p405
L915L
sS'27:64'
p406
L934L
sS'11:89'
p407
L923L
sS'11:119'
p408
L910L
sS'10:23'
p409
L1027L
sS'16:93'
p410
L910L
sS'10:29'
p411
L964L
sS'8:18'
p412
L1104L
sS'16:110'
p413
L925L
sS'20:68'
p414
L919L
sS'20:67'
p415
L964L
sS'20:65'
p416
L924L
sS'14:77'
p417
L912L
sS'20:60'
p418
L924L
s.