(dp0
S'11:27'
p1
L3600L
sS'13:36'
p2
L3496L
sS'13:37'
p3
L3420L
sS'7:54'
p4
L3323L
sS'37:84'
p5
L3281L
sS'25:104'
p6
L3241L
sS'13:39'
p7
L3435L
sS'37:80'
p8
L3270L
sS'11:29'
p9
L3523L
sS'12:47'
p10
L3382L
sS'36:113'
p11
L3148L
sS'10:55'
p12
L3305L
sS'9:94'
p13
L3124L
sS'20:89'
p14
L3142L
sS'22:68'
p15
L3187L
sS'14:66'
p16
L3316L
sS'12:100'
p17
L3116L
sS'11:97'
p18
L3217L
sS'25:107'
p19
L3109L
sS'17:107'
p20
L3117L
sS'28:125'
p21
L3306L
sS'11:31'
p22
L3539L
sS'28:127'
p23
L3245L
sS'26:66'
p24
L3311L
sS'28:123'
p25
L3157L
sS'20:119'
p26
L3150L
sS'7:47'
p27
L3361L
sS'1:4'
p28
L10852L
sS'1:5'
p29
L8338L
sS'21:97'
p30
L3242L
sS'39:101'
p31
L3160L
sS'13:86'
p32
L3227L
sS'4:45'
p33
L3354L
sS'31:81'
p34
L3309L
sS'25:56'
p35
L3326L
sS'19:54'
p36
L3265L
sS'19:55'
p37
L3361L
sS'4:17'
p38
L4095L
sS'4:47'
p39
L3269L
sS'4:44'
p40
L3395L
sS'21:67'
p41
L3313L
sS'15:128'
p42
L3217L
sS'21:118'
p43
L3136L
sS'54:128'
p44
L3301L
sS'22:73'
p45
L3279L
sS'27:128'
p46
L3237L
sS'2:10'
p47
L5218L
sS'4:48'
p48
L3286L
sS'2:14'
p49
L4360L
sS'9:26'
p50
L3623L
sS'9:24'
p51
L3681L
sS'24:94'
p52
L3260L
sS'22:128'
p53
L3245L
sS'16:104'
p54
L3106L
sS'7:78'
p55
L3246L
sS'62:128'
p56
L3341L
sS'34:106'
p57
L3289L
sS'14:123'
p58
L3109L
sS'7:72'
p59
L3272L
sS'28:119'
p60
L3260L
sS'25:123'
p61
L3138L
sS'14:128'
p62
L3157L
sS'51:128'
p63
L3321L
sS'11:47'
p64
L3335L
sS'30:98'
p65
L3150L
sS'12:28'
p66
L3545L
sS'6:18'
p67
L3983L
sS'17:59'
p68
L3313L
sS'10:73'
p69
L3255L
sS'16:74'
p70
L3293L
sS'9:99'
p71
L3221L
sS'36:99'
p72
L3230L
sS'23:127'
p73
L3135L
sS'9:90'
p74
L3275L
sS'9:91'
p75
L3161L
sS'9:96'
p76
L3192L
sS'9:97'
p77
L3125L
sS'5:10'
p78
L5003L
sS'33:128'
p79
L3283L
sS'3:39'
p80
L3391L
sS'35:98'
p81
L3131L
sS'23:128'
p82
L3274L
sS'8:45'
p83
L3375L
sS'23:126'
p84
L3119L
sS'18:37'
p85
L3507L
sS'9:18'
p86
L4027L
sS'23:125'
p87
L3121L
sS'3:36'
p88
L3465L
sS'49:105'
p89
L3325L
sS'3:34'
p90
L3535L
sS'3:35'
p91
L3495L
sS'47:106'
p92
L3323L
sS'51:113'
p93
L3332L
sS'44:100'
p94
L3310L
sS'30:89'
p95
L3260L
sS'13:101'
p96
L3214L
sS'6:60'
p97
L3197L
sS'25:78'
p98
L3263L
sS'39:123'
p99
L3298L
sS'10:61'
p100
L3278L
sS'34:94'
p101
L3154L
sS'45:96'
p102
L3338L
sS'32:121'
p103
L3259L
sS'16:82'
p104
L3228L
sS'3:21'
p105
L3838L
sS'3:20'
p106
L3926L
sS'32:126'
p107
L3173L
sS'27:105'
p108
L3363L
sS'12:99'
p109
L3247L
sS'18:96'
p110
L3115L
sS'27:102'
p111
L3195L
sS'31:123'
p112
L3206L
sS'31:125'
p113
L3132L
sS'4:23'
p114
L3719L
sS'8:55'
p115
L3346L
sS'37:125'
p116
L3137L
sS'6:34'
p117
L3433L
sS'4:12'
p118
L4550L
sS'3:30'
p119
L3536L
sS'11:110'
p120
L3169L
sS'17:40'
p121
L3474L
sS'26:97'
p122
L3174L
sS'39:90'
p123
L3295L
sS'34:101'
p124
L3251L
sS'34:102'
p125
L3167L
sS'24:50'
p126
L3411L
sS'17:39'
p127
L3502L
sS'13:71'
p128
L3277L
sS'14:28'
p129
L3605L
sS'18:116'
p130
L3152L
sS'12:88'
p131
L3151L
sS'32:66'
p132
L3313L
sS'11:114'
p133
L3197L
sS'7:66'
p134
L3281L
sS'11:116'
p135
L3282L
sS'12:80'
p136
L3181L
sS'30:74'
p137
L3309L
sS'11:112'
p138
L3139L
sS'24:48'
p139
L3438L
sS'23:108'
p140
L3204L
sS'19:128'
p141
L3155L
sS'10:97'
p142
L3101L
sS'4:34'
p143
L3491L
sS'15:45'
p144
L3389L
sS'44:113'
p145
L3273L
sS'8:20'
p146
L3886L
sS'10:98'
p147
L3156L
sS'9:77'
p148
L3234L
sS'12:71'
p149
L3176L
sS'12:110'
p150
L3164L
sS'21:120'
p151
L3150L
sS'10:108'
p152
L3240L
sS'37:118'
p153
L3144L
sS'10:107'
p154
L3102L
sS'21:128'
p155
L3250L
sS'12:91'
p156
L3232L
sS'10:100'
p157
L3109L
sS'10:101'
p158
L3234L
sS'11:113'
p159
L3168L
sS'3:8'
p160
L5755L
sS'3:9'
p161
L5413L
sS'40:126'
p162
L3167L
sS'26:115'
p163
L3244L
sS'23:93'
p164
L3145L
sS'26:118'
p165
L3181L
sS'41:128'
p166
L3247L
sS'38:92'
p167
L3351L
sS'12:123'
p168
L3130L
sS'19:111'
p169
L3139L
sS'23:110'
p170
L3264L
sS'19:118'
p171
L3230L
sS'16:63'
p172
L3295L
sS'46:128'
p173
L3304L
sS'10:85'
p174
L3209L
sS'15:56'
p175
L3365L
sS'20:44'
p176
L3458L
sS'8:18'
p177
L4036L
sS'15:59'
p178
L3305L
sS'10:89'
p179
L3279L
sS'17:94'
p180
L3102L
sS'12:61'
p181
L3297L
sS'35:112'
p182
L3111L
sS'29:75'
p183
L3305L
sS'37:105'
p184
L3152L
sS'58:128'
p185
L3337L
sS'22:110'
p186
L3193L
sS'20:107'
p187
L3244L
sS'7:73'
p188
L3170L
sS'16:120'
p189
L3126L
sS'52:109'
p190
L3340L
sS'8:86'
p191
L3239L
sS'22:80'
p192
L3227L
sS'20:109'
p193
L3121L
sS'12:122'
p194
L3150L
sS'9:57'
p195
L3266L
sS'12:127'
p196
L3126L
sS'47:126'
p197
L3204L
sS'24:128'
p198
L3265L
sS'12:128'
p199
L3249L
sS'33:84'
p200
L3411L
sS'46:115'
p201
L3147L
sS'2:4'
p202
L9355L
sS'25:82'
p203
L3130L
sS'4:15'
p204
L4174L
sS'14:59'
p205
L3345L
sS'5:50'
p206
L3292L
sS'4:16'
p207
L4222L
sS'2:8'
p208
L5739L
sS'26:79'
p209
L3237L
sS'22:97'
p210
L3139L
sS'36:75'
p211
L3308L
sS'6:69'
p212
L3158L
sS'22:101'
p213
L3124L
sS'18:87'
p214
L3261L
sS'53:121'
p215
L3198L
sS'28:128'
p216
L3291L
sS'36:100'
p217
L3285L
sS'29:81'
p218
L3155L
sS'10:21'
p219
L3871L
sS'50:126'
p220
L3322L
sS'10:28'
p221
L3507L
sS'23:50'
p222
L3374L
sS'12:124'
p223
L3190L
sS'17:60'
p224
L3257L
sS'33:91'
p225
L3226L
sS'23:57'
p226
L3345L
sS'17:125'
p227
L3137L
sS'13:128'
p228
L3266L
sS'11:115'
p229
L3126L
sS'15:76'
p230
L3273L
sS'23:67'
p231
L3321L
sS'18:50'
p232
L3434L
sS'21:44'
p233
L3474L
sS'14:70'
p234
L3252L
sS'19:109'
p235
L3322L
sS'7:30'
p236
L3539L
s.