(dp0
S'27:58'
p1
L230L
sS'42:118'
p2
L303L
sS'28:97'
p3
L264L
sS'13:39'
p4
L220L
sS'7:52'
p5
L228L
sS'11:28'
p6
L193L
sS'23:47'
p7
L230L
sS'16:34'
p8
L226L
sS'14:102'
p9
L260L
sS'14:64'
p10
L228L
sS'5:31'
p11
L166L
sS'24:108'
p12
L274L
sS'5:37'
p13
L182L
sS'6:32'
p14
L170L
sS'24:107'
p15
L286L
sS'20:50'
p16
L220L
sS'5:18'
p17
L168L
sS'8:64'
p18
L222L
sS'18:48'
p19
L213L
sS'2:4'
p20
L233L
sS'9:32'
p21
L190L
sS'7:20'
p22
L195L
sS'3:16'
p23
L148L
sS'7:22'
p24
L173L
sS'7:25'
p25
L177L
sS'3:12'
p26
L190L
sS'48:128'
p27
L308L
sS'40:116'
p28
L301L
sS'11:32'
p29
L188L
sS'14:48'
p30
L204L
sS'14:83'
p31
L247L
sS'1:4'
p32
L188L
sS'1:18'
p33
L158L
sS'1:6'
p34
L154L
sS'1:7'
p35
L148L
sS'5:52'
p36
L226L
sS'17:45'
p37
L221L
sS'12:37'
p38
L200L
sS'4:47'
p39
L208L
sS'4:44'
p40
L207L
sS'4:42'
p41
L195L
sS'4:43'
p42
L198L
sS'2:13'
p43
L150L
sS'22:70'
p44
L230L
sS'2:10'
p45
L164L
sS'11:61'
p46
L225L
sS'2:15'
p47
L160L
sS'4:49'
p48
L204L
sS'24:91'
p49
L259L
sS'25:122'
p50
L315L
sS'7:71'
p51
L234L
sS'2:26'
p52
L181L
sS'2:27'
p53
L167L
sS'2:24'
p54
L160L
sS'22:44'
p55
L253L
sS'2:23'
p56
L173L
sS'12:28'
p57
L212L
sS'60:126'
p58
L324L
sS'6:17'
p59
L179L
sS'10:76'
p60
L228L
sS'2:28'
p61
L173L
sS'2:29'
p62
L163L
sS'18:62'
p63
L229L
sS'6:68'
p64
L221L
sS'18:66'
p65
L219L
sS'36:96'
p66
L282L
sS'5:16'
p67
L185L
sS'9:93'
p68
L266L
sS'9:90'
p69
L256L
sS'5:13'
p70
L175L
sS'8:40'
p71
L185L
sS'8:47'
p72
L211L
sS'3:32'
p73
L170L
sS'3:35'
p74
L188L
sS'22:69'
p75
L229L
sS'30:87'
p76
L259L
sS'44:105'
p77
L288L
sS'6:60'
p78
L217L
sS'22:56'
p79
L220L
sS'13:65'
p80
L224L
sS'6:21'
p81
L177L
sS'45:97'
p82
L295L
sS'6:25'
p83
L167L
sS'23:96'
p84
L253L
sS'12:91'
p85
L256L
sS'3:26'
p86
L178L
sS'3:21'
p87
L162L
sS'3:20'
p88
L164L
sS'3:23'
p89
L169L
sS'18:95'
p90
L260L
sS'2:21'
p91
L167L
sS'4:27'
p92
L164L
sS'4:20'
p93
L165L
sS'4:28'
p94
L166L
sS'4:29'
p95
L160L
sS'6:36'
p96
L173L
sS'13:55'
p97
L203L
sS'28:58'
p98
L224L
sS'29:105'
p99
L292L
sS'21:111'
p100
L279L
sS'43:126'
p101
L327L
sS'33:66'
p102
L254L
sS'13:51'
p103
L214L
sS'20:128'
p104
L332L
sS'6:26'
p105
L186L
sS'21:79'
p106
L244L
sS'11:113'
p107
L285L
sS'4:30'
p108
L160L
sS'9:73'
p109
L220L
sS'4:39'
p110
L190L
sS'8:27'
p111
L162L
sS'33:73'
p112
L254L
sS'34:119'
p113
L323L
sS'20:71'
p114
L228L
sS'11:77'
p115
L229L
sS'11:70'
p116
L246L
sS'13:46'
p117
L187L
sS'17:85'
p118
L246L
sS'18:121'
p119
L312L
sS'30:68'
p120
L267L
sS'27:89'
p121
L261L
sS'59:125'
p122
L321L
sS'1:10'
p123
L147L
sS'19:91'
p124
L259L
sS'1:16'
p125
L153L
sS'1:17'
p126
L150L
sS'7:31'
p127
L172L
sS'1:15'
p128
L148L
sS'32:128'
p129
L332L
sS'9:69'
p130
L228L
sS'2:25'
p131
L158L
sS'20:44'
p132
L223L
sS'8:30'
p133
L172L
sS'9:65'
p134
L223L
sS'8:34'
p135
L175L
sS'28:71'
p136
L264L
sS'6:51'
p137
L221L
sS'13:50'
p138
L215L
sS'6:56'
p139
L202L
sS'12:29'
p140
L195L
sS'24:78'
p141
L239L
sS'17:59'
p142
L223L
sS'9:54'
p143
L215L
sS'12:121'
p144
L325L
sS'9:52'
p145
L226L
sS'23:69'
p146
L229L
sS'1:5'
p147
L167L
sS'33:84'
p148
L249L
sS'1:14'
p149
L156L
sS'2:5'
p150
L201L
sS'20:51'
p151
L220L
sS'20:54'
p152
L218L
sS'4:15'
p153
L165L
sS'5:50'
p154
L210L
sS'5:54'
p155
L206L
sS'2:8'
p156
L169L
sS'36:75'
p157
L270L
sS'6:66'
p158
L223L
sS'7:43'
p159
L197L
sS'6:64'
p160
L224L
sS'29:62'
p161
L232L
sS'28:82'
p162
L256L
sS'15:85'
p163
L247L
sS'10:23'
p164
L236L
sS'10:29'
p165
L180L
sS'9:44'
p166
L205L
sS'17:46'
p167
L212L
sS'9:48'
p168
L196L
sS'18:79'
p169
L231L
sS'1:8'
p170
L148L
sS'14:71'
p171
L233L
sS'21:45'
p172
L236L
sS'7:33'
p173
L179L
sS'17:128'
p174
L337L
s.