(dp0
S'27:71'
p1
L400L
sS'12:63'
p2
L368L
sS'11:25'
p3
L272L
sS'27:72'
p4
L379L
sS'36:117'
p5
L483L
sS'1:18'
p6
L237L
sS'35:96'
p7
L436L
sS'28:78'
p8
L391L
sS'21:88'
p9
L415L
sS'34:102'
p10
L454L
sS'19:78'
p11
L394L
sS'29:104'
p12
L455L
sS'26:80'
p13
L403L
sS'14:103'
p14
L449L
sS'35:78'
p15
L412L
sS'19:47'
p16
L347L
sS'43:123'
p17
L506L
sS'24:120'
p18
L484L
sS'10:38'
p19
L295L
sS'14:60'
p20
L371L
sS'36:94'
p21
L428L
sS'24:127'
p22
L511L
sS'40:82'
p23
L411L
sS'16:53'
p24
L338L
sS'47:108'
p25
L461L
sS'2:7'
p26
L230L
sS'7:64'
p27
L368L
sS'2:5'
p28
L276L
sS'2:4'
p29
L333L
sS'15:42'
p30
L310L
sS'8:63'
p31
L372L
sS'24:89'
p32
L412L
sS'4:17'
p33
L239L
sS'8:23'
p34
L291L
sS'2:8'
p35
L245L
sS'10:40'
p36
L302L
sS'27:92'
p37
L414L
sS'12:91'
p38
L422L
sS'48:107'
p39
L485L
sS'15:46'
p40
L312L
sS'1:4'
p41
L280L
sS'23:59'
p42
L368L
sS'1:6'
p43
L252L
sS'21:94'
p44
L426L
sS'10:42'
p45
L310L
sS'3:8'
p46
L259L
sS'26:93'
p47
L429L
sS'6:15'
p48
L261L
sS'9:82'
p49
L401L
sS'11:77'
p50
L384L
sS'3:6'
p51
L316L
sS'30:127'
p52
L499L
sS'11:73'
p53
L385L
sS'2:19'
p54
L240L
sS'55:111'
p55
L482L
sS'3:22'
p56
L248L
sS'2:13'
p57
L239L
sS'2:12'
p58
L231L
sS'4:41'
p59
L303L
sS'16:63'
p60
L390L
sS'14:31'
p61
L295L
sS'24:114'
p62
L476L
sS'20:94'
p63
L421L
sS'20:44'
p64
L334L
sS'13:66'
p65
L376L
sS'8:70'
p66
L384L
sS'18:51'
p67
L332L
sS'9:62'
p68
L368L
sS'22:128'
p69
L522L
s.