(dp0
S'3:17'
p1
L101L
sS'28:96'
p2
L205L
sS'7:55'
p3
L152L
sS'14:93'
p4
L201L
sS'12:44'
p5
L148L
sS'7:51'
p6
L157L
sS'12:47'
p7
L140L
sS'10:53'
p8
L155L
sS'19:49'
p9
L152L
sS'52:128'
p10
L244L
sS'8:42'
p11
L138L
sS'5:36'
p12
L126L
sS'12:104'
p13
L213L
sS'2:14'
p14
L97L
sS'20:78'
p15
L187L
sS'24:80'
p16
L183L
sS'18:49'
p17
L154L
sS'3:18'
p18
L105L
sS'14:90'
p19
L191L
sS'20:70'
p20
L170L
sS'21:59'
p21
L158L
sS'13:44'
p22
L149L
sS'20:74'
p23
L173L
sS'28:94'
p24
L197L
sS'3:12'
p25
L110L
sS'20:77'
p26
L172L
sS'11:30'
p27
L122L
sS'1:9'
p28
L99L
sS'11:35'
p29
L134L
sS'1:4'
p30
L117L
sS'21:94'
p31
L196L
sS'1:6'
p32
L111L
sS'1:7'
p33
L94L
sS'10:42'
p34
L146L
sS'39:106'
p35
L211L
sS'21:64'
p36
L162L
sS'4:47'
p37
L144L
sS'18:72'
p38
L170L
sS'2:12'
p39
L104L
sS'2:11'
p40
L98L
sS'12:110'
p41
L217L
sS'4:49'
p42
L149L
sS'8:72'
p43
L170L
sS'1:10'
p44
L99L
sS'28:110'
p45
L217L
sS'40:104'
p46
L213L
sS'42:98'
p47
L209L
sS'7:70'
p48
L173L
sS'7:71'
p49
L165L
sS'17:50'
p50
L150L
sS'1:14'
p51
L102L
sS'6:19'
p52
L111L
sS'19:60'
p53
L161L
sS'26:88'
p54
L195L
sS'16:95'
p55
L200L
sS'5:18'
p56
L116L
sS'9:93'
p57
L194L
sS'9:91'
p58
L193L
sS'9:96'
p59
L202L
sS'2:23'
p60
L116L
sS'8:44'
p61
L142L
sS'33:120'
p62
L236L
sS'3:31'
p63
L118L
sS'3:36'
p64
L131L
sS'3:37'
p65
L130L
sS'3:35'
p66
L127L
sS'22:106'
p67
L205L
sS'28:105'
p68
L222L
sS'10:68'
p69
L165L
sS'38:121'
p70
L239L
sS'9:81'
p71
L184L
sS'13:65'
p72
L164L
sS'22:59'
p73
L162L
sS'34:95'
p74
L196L
sS'34:93'
p75
L195L
sS'13:60'
p76
L160L
sS'6:24'
p77
L114L
sS'8:30'
p78
L118L
sS'3:21'
p79
L109L
sS'23:92'
p80
L196L
sS'3:28'
p81
L115L
sS'4:20'
p82
L111L
sS'15:33'
p83
L134L
sS'9:64'
p84
L166L
sS'11:63'
p85
L162L
sS'11:60'
p86
L158L
sS'11:69'
p87
L166L
sS'6:20'
p88
L111L
sS'18:116'
p89
L222L
sS'11:118'
p90
L231L
sS'12:84'
p91
L179L
sS'18:84'
p92
L185L
sS'16:71'
p93
L174L
sS'12:82'
p94
L176L
sS'4:30'
p95
L117L
sS'9:70'
p96
L175L
sS'22:115'
p97
L228L
sS'6:46'
p98
L145L
sS'6:47'
p99
L150L
sS'21:128'
p100
L250L
sS'57:114'
p101
L230L
sS'19:121'
p102
L237L
sS'3:8'
p103
L107L
sS'3:26'
p104
L113L
sS'29:116'
p105
L221L
sS'29:119'
p106
L232L
sS'17:81'
p107
L180L
sS'17:86'
p108
L185L
sS'3:20'
p109
L112L
sS'2:26'
p110
L113L
sS'1:19'
p111
L108L
sS'3:10'
p112
L99L
sS'20:112'
p113
L224L
sS'27:81'
p114
L190L
sS'11:105'
p115
L220L
sS'12:41'
p116
L139L
sS'20:42'
p117
L152L
sS'9:62'
p118
L160L
sS'48:128'
p119
L236L
sS'11:40'
p120
L136L
sS'30:113'
p121
L221L
sS'1:8'
p122
L93L
sS'17:96'
p123
L203L
sS'12:61'
p124
L165L
sS'6:58'
p125
L160L
sS'37:103'
p126
L212L
sS'8:87'
p127
L186L
sS'24:77'
p128
L177L
sS'8:82'
p129
L186L
sS'9:57'
p130
L160L
sS'10:108'
p131
L213L
sS'10:33'
p132
L131L
sS'38:85'
p133
L182L
sS'16:56'
p134
L167L
sS'2:7'
p135
L98L
sS'2:4'
p136
L136L
sS'4:19'
p137
L109L
sS'14:49'
p138
L149L
sS'5:52'
p139
L159L
sS'21:53'
p140
L154L
sS'35:104'
p141
L209L
sS'27:66'
p142
L164L
sS'37:78'
p143
L185L
sS'6:67'
p144
L167L
sS'18:78'
p145
L175L
sS'42:128'
p146
L257L
sS'6:61'
p147
L164L
sS'10:25'
p148
L122L
sS'16:47'
p149
L147L
sS'17:69'
p150
L167L
sS'9:42'
p151
L138L
sS'5:40'
p152
L144L
sS'23:50'
p153
L154L
sS'5:49'
p154
L146L
sS'5:48'
p155
L145L
sS'7:43'
p156
L140L
sS'25:107'
p157
L220L
sS'18:53'
p158
L158L
sS'7:35'
p159
L126L
sS'18:55'
p160
L152L
s.