(dp0
S'11:26'
p1
L238L
sS'42:113'
p2
L359L
sS'28:96'
p3
L310L
sS'10:50'
p4
L251L
sS'15:94'
p5
L311L
sS'15:92'
p6
L287L
sS'10:57'
p7
L235L
sS'20:82'
p8
L277L
sS'10:59'
p9
L243L
sS'4:46'
p10
L222L
sS'19:47'
p11
L272L
sS'5:32'
p12
L194L
sS'54:116'
p13
L381L
sS'5:34'
p14
L208L
sS'5:35'
p15
L209L
sS'5:36'
p16
L212L
sS'22:60'
p17
L260L
sS'17:76'
p18
L267L
sS'9:35'
p19
L205L
sS'9:37'
p20
L213L
sS'3:18'
p21
L178L
sS'9:32'
p22
L232L
sS'18:42'
p23
L394L
sS'11:98'
p24
L290L
sS'18:41'
p25
L251L
sS'55:127'
p26
L358L
sS'1:8'
p27
L176L
sS'21:64'
p28
L262L
sS'11:33'
p29
L203L
sS'11:34'
p30
L228L
sS'35:128'
p31
L345L
sS'14:80'
p32
L273L
sS'1:4'
p33
L223L
sS'14:87'
p34
L282L
sS'1:6'
p35
L191L
sS'1:7'
p36
L165L
sS'17:47'
p37
L243L
sS'4:45'
p38
L214L
sS'4:14'
p39
L212L
sS'12:36'
p40
L228L
sS'12:32'
p41
L242L
sS'18:77'
p42
L270L
sS'54:123'
p43
L368L
sS'21:61'
p44
L254L
sS'5:25'
p45
L187L
sS'2:12'
p46
L190L
sS'21:69'
p47
L284L
sS'2:15'
p48
L171L
sS'2:14'
p49
L173L
sS'6:35'
p50
L199L
sS'1:10'
p51
L167L
sS'14:124'
p52
L371L
sS'7:78'
p53
L254L
sS'7:77'
p54
L258L
sS'7:75'
p55
L254L
sS'26:87'
p56
L287L
sS'13:113'
p57
L305L
sS'17:52'
p58
L244L
sS'2:25'
p59
L183L
sS'11:41'
p60
L253L
sS'2:23'
p61
L184L
sS'2:20'
p62
L181L
sS'2:21'
p63
L179L
sS'12:25'
p64
L273L
sS'19:66'
p65
L263L
sS'22:49'
p66
L258L
sS'31:67'
p67
L272L
sS'5:17'
p68
L213L
sS'9:96'
p69
L296L
sS'4:43'
p70
L218L
sS'33:128'
p71
L363L
sS'3:39'
p72
L221L
sS'3:32'
p73
L204L
sS'3:30'
p74
L186L
sS'3:37'
p75
L213L
sS'3:34'
p76
L201L
sS'19:74'
p77
L272L
sS'51:116'
p78
L365L
sS'6:60'
p79
L232L
sS'39:85'
p80
L311L
sS'6:29'
p81
L197L
sS'13:69'
p82
L248L
sS'39:82'
p83
L298L
sS'22:56'
p84
L254L
sS'9:82'
p85
L279L
sS'6:23'
p86
L229L
sS'34:93'
p87
L295L
sS'11:59'
p88
L261L
sS'18:104'
p89
L293L
sS'3:26'
p90
L201L
sS'14:38'
p91
L242L
sS'27:104'
p92
L299L
sS'14:33'
p93
L231L
sS'4:26'
p94
L187L
sS'4:20'
p95
L183L
sS'8:35'
p96
L205L
sS'4:22'
p97
L190L
sS'4:28'
p98
L190L
sS'25:79'
p99
L284L
sS'6:30'
p100
L206L
sS'17:105'
p101
L308L
sS'11:64'
p102
L252L
sS'26:63'
p103
L270L
sS'32:67'
p104
L264L
sS'6:26'
p105
L201L
sS'11:116'
p106
L352L
sS'11:110'
p107
L306L
sS'11:111'
p108
L312L
sS'18:81'
p109
L254L
sS'4:35'
p110
L200L
sS'8:23'
p111
L223L
sS'19:125'
p112
L343L
sS'6:42'
p113
L234L
sS'12:75'
p114
L253L
sS'30:101'
p115
L309L
sS'10:106'
p116
L330L
sS'48:107'
p117
L372L
sS'57:116'
p118
L394L
sS'3:14'
p119
L175L
sS'26:110'
p120
L318L
sS'13:48'
p121
L231L
sS'34:118'
p122
L374L
sS'34:117'
p123
L326L
sS'24:69'
p124
L261L
sS'24:68'
p125
L270L
sS'3:7'
p126
L242L
sS'1:18'
p127
L172L
sS'1:19'
p128
L177L
sS'1:12'
p129
L175L
sS'11:101'
p130
L314L
sS'1:11'
p131
L175L
sS'1:16'
p132
L179L
sS'1:14'
p133
L164L
sS'19:95'
p134
L311L
sS'15:53'
p135
L237L
sS'8:39'
p136
L212L
sS'8:38'
p137
L219L
sS'14:58'
p138
L246L
sS'10:81'
p139
L263L
sS'14:54'
p140
L252L
sS'20:99'
p141
L298L
sS'1:5'
p142
L201L
sS'12:60'
p143
L238L
sS'17:97'
p144
L299L
sS'6:56'
p145
L235L
sS'27:77'
p146
L278L
sS'1:9'
p147
L172L
sS'17:98'
p148
L287L
sS'1:15'
p149
L169L
sS'24:78'
p150
L260L
sS'20:101'
p151
L318L
sS'8:86'
p152
L276L
sS'8:87'
p153
L278L
sS'29:121'
p154
L359L
sS'29:123'
p155
L353L
sS'10:38'
p156
L223L
sS'3:17'
p157
L174L
sS'9:53'
p158
L237L
sS'16:52'
p159
L264L
sS'12:128'
p160
L366L
sS'23:62'
p161
L268L
sS'2:6'
p162
L268L
sS'2:5'
p163
L239L
sS'2:4'
p164
L259L
sS'4:19'
p165
L187L
sS'2:28'
p166
L186L
sS'14:47'
p167
L238L
sS'15:65'
p168
L282L
sS'31:92'
p169
L279L
sS'4:13'
p170
L213L
sS'4:21'
p171
L194L
sS'27:62'
p172
L263L
sS'10:102'
p173
L281L
sS'6:64'
p174
L250L
sS'29:62'
p175
L269L
sS'28:128'
p176
L363L
sS'9:55'
p177
L243L
sS'16:41'
p178
L240L
sS'18:53'
p179
L253L
sS'9:43'
p180
L240L
sS'23:51'
p181
L282L
sS'5:49'
p182
L223L
sS'33:97'
p183
L303L
sS'10:67'
p184
L240L
sS'7:43'
p185
L219L
sS'7:38'
p186
L221L
sS'7:34'
p187
L211L
sS'20:60'
p188
L263L
sS'15:76'
p189
L255L
sS'14:74'
p190
L256L
s.