(dp0
S'45:104'
p1
L3576L
sS'11:24'
p2
L3653L
sS'40:82'
p3
L3567L
sS'45:102'
p4
L3577L
sS'28:99'
p5
L3768L
sS'31:87'
p6
L3668L
sS'37:84'
p7
L3608L
sS'31:103'
p8
L3667L
sS'42:103'
p9
L3609L
sS'39:113'
p10
L3650L
sS'32:88'
p11
L3669L
sS'16:99'
p12
L3774L
sS'24:60'
p13
L3633L
sS'38:77'
p14
L3574L
sS'44:88'
p15
L3551L
sS'48:103'
p16
L3604L
sS'26:118'
p17
L3725L
sS'49:108'
p18
L3588L
sS'46:98'
p19
L3623L
sS'14:60'
p20
L3716L
sS'5:21'
p21
L3804L
sS'54:112'
p22
L3608L
sS'46:92'
p23
L3570L
sS'17:73'
p24
L3714L
sS'56:114'
p25
L3543L
sS'46:94'
p26
L3570L
sS'46:95'
p27
L3626L
sS'9:35'
p28
L3709L
sS'24:83'
p29
L3604L
sS'53:108'
p30
L3553L
sS'57:116'
p31
L3573L
sS'13:44'
p32
L3676L
sS'20:74'
p33
L3706L
sS'49:123'
p34
L3599L
sS'48:128'
p35
L3666L
sS'40:116'
p36
L3714L
sS'48:96'
p37
L3569L
sS'11:33'
p38
L3669L
sS'42:89'
p39
L3632L
sS'44:89'
p40
L3625L
sS'35:128'
p41
L3747L
sS'7:47'
p42
L3811L
sS'51:103'
p43
L3514L
sS'35:123'
p44
L3681L
sS'27:120'
p45
L3654L
sS'37:90'
p46
L3619L
sS'1:7'
p47
L8451L
sS'39:104'
p48
L3655L
sS'39:107'
p49
L3590L
sS'49:101'
p50
L3587L
sS'19:54'
p51
L3669L
sS'12:36'
p52
L3651L
sS'54:120'
p53
L3623L
sS'21:66'
p54
L3726L
sS'49:103'
p55
L3624L
sS'55:110'
p56
L3617L
sS'55:111'
p57
L3574L
sS'55:112'
p58
L3508L
sS'27:128'
p59
L3779L
sS'21:69'
p60
L3641L
sS'12:114'
p61
L3862L
sS'61:128'
p62
L3591L
sS'9:26'
p63
L3682L
sS'48:113'
p64
L3634L
sS'61:122'
p65
L3586L
sS'57:128'
p66
L3630L
sS'42:90'
p67
L3619L
sS'7:25'
p68
L3704L
sS'51:110'
p69
L3560L
sS'51:121'
p70
L3585L
sS'40:102'
p71
L3618L
sS'44:90'
p72
L3617L
sS'21:81'
p73
L3681L
sS'42:92'
p74
L3596L
sS'62:125'
p75
L3600L
sS'62:124'
p76
L3618L
sS'60:121'
p77
L3601L
sS'60:120'
p78
L3588L
sS'22:44'
p79
L3661L
sS'11:41'
p80
L3727L
sS'52:105'
p81
L3607L
sS'52:106'
p82
L3566L
sS'13:97'
p83
L3758L
sS'12:26'
p84
L3646L
sS'6:15'
p85
L4064L
sS'18:60'
p86
L3707L
sS'46:93'
p87
L3607L
sS'5:19'
p88
L3859L
sS'36:99'
p89
L3640L
sS'25:64'
p90
L3642L
sS'9:90'
p91
L3842L
sS'38:76'
p92
L3570L
sS'5:10'
p93
L4525L
sS'34:85'
p94
L3653L
sS'48:98'
p95
L3565L
sS'33:128'
p96
L3745L
sS'40:81'
p97
L3574L
sS'40:80'
p98
L3569L
sS'23:128'
p99
L3865L
sS'18:37'
p100
L3637L
sS'9:19'
p101
L3784L
sS'49:104'
p102
L3606L
sS'22:128'
p103
L3845L
sS'25:111'
p104
L3698L
sS'30:86'
p105
L3631L
sS'40:122'
p106
L3676L
sS'19:71'
p107
L3680L
sS'44:105'
p108
L3621L
sS'42:128'
p109
L3604L
sS'22:51'
p110
L3655L
sS'33:69'
p111
L3655L
sS'43:112'
p112
L3591L
sS'13:107'
p113
L3752L
sS'39:80'
p114
L3580L
sS'47:102'
p115
L3577L
sS'45:91'
p116
L3569L
sS'52:114'
p117
L3607L
sS'52:111'
p118
L3587L
sS'54:110'
p119
L3523L
sS'33:116'
p120
L3724L
sS'31:75'
p121
L3644L
sS'23:93'
p122
L3690L
sS'43:94'
p123
L3566L
sS'33:112'
p124
L3693L
sS'43:96'
p125
L3618L
sS'18:95'
p126
L3749L
sS'27:103'
p127
L3676L
sS'52:104'
p128
L3575L
sS'31:120'
p129
L3699L
sS'40:98'
p130
L3641L
sS'24:102'
p131
L3718L
sS'16:40'
p132
L3689L
sS'31:128'
p133
L3720L
sS'15:38'
p134
L3683L
sS'40:93'
p135
L3571L
sS'56:113'
p136
L3567L
sS'56:112'
p137
L3570L
sS'44:93'
p138
L3592L
sS'53:110'
p139
L3534L
sS'40:128'
p140
L3765L
sS'51:105'
p141
L3564L
sS'51:104'
p142
L3563L
sS'29:59'
p143
L3582L
sS'37:128'
p144
L3730L
sS'11:62'
p145
L3722L
sS'34:102'
p146
L3651L
sS'39:94'
p147
L3582L
sS'64:128'
p148
L3561L
sS'25:60'
p149
L3615L
sS'35:79'
p150
L3611L
sS'28:56'
p151
L3636L
sS'28:57'
p152
L3655L
sS'41:90'
p153
L3564L
sS'14:28'
p154
L3648L
sS'27:118'
p155
L3714L
sS'32:64'
p156
L3577L
sS'32:65'
p157
L3596L
sS'48:102'
p158
L3581L
sS'55:128'
p159
L3599L
sS'19:82'
p160
L3713L
sS'30:75'
p161
L3576L
sS'15:43'
p162
L3670L
sS'16:73'
p163
L3666L
sS'8:29'
p164
L3674L
sS'4:35'
p165
L3892L
sS'15:47'
p166
L3719L
sS'41:82'
p167
L3534L
sS'4:38'
p168
L3884L
sS'30:105'
p169
L3694L
sS'53:107'
p170
L3563L
sS'53:106'
p171
L3570L
sS'53:109'
p172
L3595L
sS'12:77'
p173
L3735L
sS'33:73'
p174
L3608L
sS'42:85'
p175
L3559L
sS'62:127'
p176
L3601L
sS'48:101'
p177
L3540L
sS'43:93'
p178
L3592L
sS'57:114'
p179
L3556L
sS'57:115'
p180
L3538L
sS'58:119'
p181
L3621L
sS'58:118'
p182
L3543L
sS'50:100'
p183
L3558L
sS'50:101'
p184
L3537L
sS'24:67'
p185
L3653L
sS'63:127'
p186
L3646L
sS'50:104'
p187
L3634L
sS'17:81'
p188
L3732L
sS'58:117'
p189
L3672L
sS'17:84'
p190
L3794L
sS'47:96'
p191
L3545L
sS'18:41'
p192
L3643L
sS'42:100'
p193
L3628L
sS'42:84'
p194
L3607L
sS'27:85'
p195
L3639L
sS'30:60'
p196
L3620L
sS'59:121'
p197
L3580L
sS'32:90'
p198
L3644L
sS'49:99'
p199
L3535L
sS'49:98'
p200
L3608L
sS'48:105'
p201
L3533L
sS'8:19'
p202
L3802L
sS'9:68'
p203
L3782L
sS'20:45'
p204
L3629L
sS'7:18'
p205
L3845L
sS'14:54'
p206
L3685L
sS'8:27'
p207
L3668L
sS'29:71'
p208
L3611L
sS'39:78'
p209
L3560L
sS'48:100'
p210
L3511L
sS'28:77'
p211
L3653L
sS'37:105'
p212
L3641L
sS'52:107'
p213
L3562L
sS'30:106'
p214
L3710L
sS'43:99'
p215
L3593L
sS'6:17'
p216
L3906L
sS'56:115'
p217
L3652L
sS'48:97'
p218
L3520L
sS'26:107'
p219
L3716L
sS'39:79'
p220
L3556L
sS'24:75'
p221
L3661L
sS'22:86'
p222
L3764L
sS'24:73'
p223
L3694L
sS'59:118'
p224
L3565L
sS'59:119'
p225
L3594L
sS'16:58'
p226
L3706L
sS'21:122'
p227
L3788L
sS'9:50'
p228
L3788L
sS'47:95'
p229
L3533L
sS'47:94'
p230
L3540L
sS'47:97'
p231
L3633L
sS'37:99'
p232
L3622L
sS'10:35'
p233
L3658L
sS'60:125'
p234
L3590L
sS'37:96'
p235
L3592L
sS'2:4'
p236
L7810L
sS'25:83'
p237
L3659L
sS'37:97'
p238
L3636L
sS'14:47'
p239
L3721L
sS'4:16'
p240
L4021L
sS'4:11'
p241
L4404L
sS'34:69'
p242
L3583L
sS'36:72'
p243
L3626L
sS'58:116'
p244
L3622L
sS'27:66'
p245
L3610L
sS'37:76'
p246
L3595L
sS'26:53'
p247
L3627L
sS'48:104'
p248
L3535L
sS'1:4'
p249
L14360L
sS'28:87'
p250
L3693L
sS'21:49'
p251
L3622L
sS'28:80'
p252
L3740L
sS'20:49'
p253
L3632L
sS'28:128'
p254
L3716L
sS'36:102'
p255
L3645L
sS'16:45'
p256
L3693L
sS'10:38'
p257
L3702L
sS'10:20'
p258
L3727L
sS'10:21'
p259
L3706L
sS'22:53'
p260
L3645L
sS'59:120'
p261
L3551L
sS'37:91'
p262
L3597L
sS'38:109'
p263
L3643L
sS'50:102'
p264
L3601L
sS'38:119'
p265
L3636L
sS'34:105'
p266
L3648L
sS'23:60'
p267
L3658L
sS'38:113'
p268
L3674L
sS'47:100'
p269
L3604L
sS'31:62'
p270
L3612L
sS'24:111'
p271
L3674L
sS'54:108'
p272
L3623L
sS'54:109'
p273
L3595L
sS'10:33'
p274
L3668L
sS'3:9'
p275
L4856L
sS'51:102'
p276
L3567L
sS'17:121'
p277
L3814L
sS'36:98'
p278
L3669L
sS'63:126'
p279
L3597L
sS'14:76'
p280
L3710L
sS'12:38'
p281
L3726L
s.