(dp0
S'11:27'
p1
L374L
sS'13:33'
p2
L423L
sS'45:107'
p3
L550L
sS'13:36'
p4
L472L
sS'27:59'
p5
L568L
sS'27:55'
p6
L542L
sS'37:80'
p7
L552L
sS'33:84'
p8
L584L
sS'23:46'
p9
L527L
sS'13:31'
p10
L401L
sS'15:93'
p11
L707L
sS'19:41'
p12
L500L
sS'30:69'
p13
L623L
sS'20:53'
p14
L579L
sS'2:5'
p15
L235L
sS'20:78'
p16
L638L
sS'8:67'
p17
L718L
sS'49:128'
p18
L568L
sS'9:33'
p19
L449L
sS'20:71'
p20
L659L
sS'3:17'
p21
L312L
sS'7:25'
p22
L347L
sS'20:75'
p23
L674L
sS'42:89'
p24
L550L
sS'44:88'
p25
L544L
sS'37:96'
p26
L593L
sS'4:8'
p27
L220L
sS'1:4'
p28
L335L
sS'1:5'
p29
L332L
sS'1:6'
p30
L365L
sS'29:58'
p31
L557L
sS'25:51'
p32
L536L
sS'10:43'
p33
L571L
sS'10:41'
p34
L570L
sS'25:55'
p35
L572L
sS'12:37'
p36
L511L
sS'7:53'
p37
L672L
sS'9:18'
p38
L294L
sS'5:20'
p39
L325L
sS'18:73'
p40
L650L
sS'2:13'
p41
L261L
sS'22:73'
p42
L625L
sS'2:11'
p43
L252L
sS'21:68'
p44
L625L
sS'2:14'
p45
L289L
sS'23:47'
p46
L546L
sS'9:23'
p47
L303L
sS'34:68'
p48
L585L
sS'57:124'
p49
L581L
sS'2:8'
p50
L243L
sS'16:34'
p51
L433L
sS'14:124'
p52
L773L
sS'14:126'
p53
L720L
sS'19:39'
p54
L514L
sS'22:76'
p55
L615L
sS'44:110'
p56
L573L
sS'17:50'
p57
L611L
sS'17:51'
p58
L586L
sS'22:45'
p59
L514L
sS'17:57'
p60
L618L
sS'6:15'
p61
L250L
sS'6:13'
p62
L220L
sS'6:12'
p63
L232L
sS'32:114'
p64
L645L
sS'26:52'
p65
L552L
sS'33:67'
p66
L589L
sS'5:14'
p67
L253L
sS'29:89'
p68
L631L
sS'5:12'
p69
L233L
sS'5:10'
p70
L244L
sS'5:11'
p71
L238L
sS'7:14'
p72
L246L
sS'8:48'
p73
L631L
sS'9:19'
p74
L268L
sS'36:78'
p75
L588L
sS'5:15'
p76
L261L
sS'14:29'
p77
L373L
sS'7:17'
p78
L276L
sS'13:69'
p79
L654L
sS'13:104'
p80
L689L
sS'26:96'
p81
L607L
sS'26:97'
p82
L648L
sS'6:27'
p83
L392L
sS'10:67'
p84
L680L
sS'14:39'
p85
L491L
sS'3:22'
p86
L353L
sS'15:42'
p87
L541L
sS'10:26'
p88
L354L
sS'15:31'
p89
L413L
sS'15:33'
p90
L415L
sS'6:31'
p91
L447L
sS'29:59'
p92
L563L
sS'51:102'
p93
L540L
sS'35:71'
p94
L570L
sS'35:76'
p95
L572L
sS'64:128'
p96
L543L
sS'41:98'
p97
L551L
sS'19:42'
p98
L513L
sS'34:84'
p99
L580L
sS'46:114'
p100
L613L
sS'26:62'
p101
L597L
sS'14:28'
p102
L366L
sS'17:37'
p103
L469L
sS'17:34'
p104
L448L
sS'17:35'
p105
L448L
sS'27:113'
p106
L620L
sS'32:69'
p107
L571L
sS'16:76'
p108
L659L
sS'24:48'
p109
L539L
sS'15:40'
p110
L525L
sS'15:43'
p111
L523L
sS'9:37'
p112
L527L
sS'4:32'
p113
L478L
sS'4:31'
p114
L456L
sS'15:49'
p115
L595L
sS'8:21'
p116
L302L
sS'8:24'
p117
L352L
sS'53:107'
p118
L539L
sS'30:107'
p119
L661L
sS'48:109'
p120
L569L
sS'33:71'
p121
L571L
sS'42:85'
p122
L581L
sS'30:109'
p123
L686L
sS'8:20'
p124
L293L
sS'3:8'
p125
L308L
sS'63:127'
p126
L575L
sS'7:20'
p127
L310L
sS'24:69'
p128
L621L
sS'3:6'
p129
L208L
sS'3:7'
p130
L221L
sS'4:23'
p131
L338L
sS'20:118'
p132
L693L
sS'21:70'
p133
L648L
sS'38:97'
p134
L577L
sS'3:23'
p135
L353L
sS'27:84'
p136
L625L
sS'14:38'
p137
L498L
sS'16:60'
p138
L658L
sS'20:40'
p139
L495L
sS'18:37'
p140
L496L
sS'7:15'
p141
L249L
sS'7:16'
p142
L246L
sS'8:18'
p143
L264L
sS'20:49'
p144
L555L
sS'14:54'
p145
L613L
sS'18:39'
p146
L472L
sS'14:56'
p147
L653L
sS'28:70'
p148
L609L
sS'12:29'
p149
L379L
sS'13:58'
p150
L662L
sS'37:102'
p151
L564L
sS'36:85'
p152
L578L
sS'2:6'
p153
L232L
sS'39:78'
p154
L558L
sS'24:74'
p155
L629L
sS'12:24'
p156
L350L
sS'33:89'
p157
L595L
sS'46:117'
p158
L603L
sS'38:88'
p159
L566L
sS'38:89'
p160
L586L
sS'53:128'
p161
L611L
sS'23:66'
p162
L619L
sS'10:32'
p163
L431L
sS'10:30'
p164
L409L
sS'38:101'
p165
L596L
sS'16:55'
p166
L619L
sS'2:7'
p167
L236L
sS'4:9'
p168
L215L
sS'20:50'
p169
L589L
sS'2:4'
p170
L246L
sS'42:84'
p171
L547L
sS'4:15'
p172
L267L
sS'5:50'
p173
L687L
sS'4:10'
p174
L231L
sS'14:40'
p175
L522L
sS'4:12'
p176
L233L
sS'36:73'
p177
L549L
sS'36:72'
p178
L564L
sS'38:77'
p179
L583L
sS'38:76'
p180
L557L
sS'6:65'
p181
L738L
sS'6:62'
p182
L663L
sS'29:61'
p183
L566L
sS'31:114'
p184
L626L
sS'16:46'
p185
L558L
sS'10:27'
p186
L371L
sS'50:128'
p187
L617L
sS'10:21'
p188
L292L
sS'14:70'
p189
L635L
sS'8:17'
p190
L275L
sS'25:50'
p191
L547L
sS'8:19'
p192
L277L
sS'9:48'
p193
L613L
sS'23:55'
p194
L582L
sS'11:86'
p195
L734L
sS'21:46'
p196
L513L
sS'18:52'
p197
L602L
sS'21:42'
p198
L494L
sS'21:43'
p199
L496L
sS'20:60'
p200
L637L
s.