(dp0
S'13:30'
p1
L373L
sS'10:30'
p2
L388L
sS'37:89'
p3
L551L
sS'31:103'
p4
L560L
sS'39:116'
p5
L564L
sS'20:80'
p6
L639L
sS'11:23'
p7
L282L
sS'19:42'
p8
L486L
sS'14:67'
p9
L635L
sS'18:49'
p10
L554L
sS'3:18'
p11
L289L
sS'3:19'
p12
L284L
sS'18:42'
p13
L479L
sS'16:66'
p14
L625L
sS'4:9'
p15
L198L
sS'4:8'
p16
L194L
sS'1:4'
p17
L298L
sS'40:118'
p18
L536L
sS'7:40'
p19
L566L
sS'25:52'
p20
L527L
sS'36:128'
p21
L623L
sS'17:40'
p22
L489L
sS'39:109'
p23
L569L
sS'18:73'
p24
L637L
sS'12:36'
p25
L461L
sS'18:77'
p26
L629L
sS'18:76'
p27
L634L
sS'5:27'
p28
L391L
sS'27:127'
p29
L676L
sS'4:40'
p30
L590L
sS'4:41'
p31
L569L
sS'2:13'
p32
L240L
sS'15:124'
p33
L739L
sS'1:12'
p34
L303L
sS'9:25'
p35
L317L
sS'57:126'
p36
L538L
sS'9:21'
p37
L279L
sS'29:98'
p38
L579L
sS'9:28'
p39
L359L
sS'28:112'
p40
L587L
sS'51:120'
p41
L526L
sS'11:49'
p42
L596L
sS'17:53'
p43
L580L
sS'26:83'
p44
L620L
sS'11:40'
p45
L522L
sS'6:17'
p46
L255L
sS'35:84'
p47
L561L
sS'21:102'
p48
L656L
sS'19:65'
p49
L607L
sS'10:70'
p50
L666L
sS'32:111'
p51
L600L
sS'36:99'
p52
L589L
sS'5:17'
p53
L267L
sS'5:15'
p54
L236L
sS'31:69'
p55
L579L
sS'9:95'
p56
L663L
sS'8:40'
p57
L554L
sS'40:80'
p58
L528L
sS'35:93'
p59
L539L
sS'9:20'
p60
L281L
sS'11:55'
p61
L618L
sS'34:99'
p62
L571L
sS'26:97'
p63
L596L
sS'30:122'
p64
L619L
sS'45:90'
p65
L515L
sS'24:48'
p66
L505L
sS'3:27'
p67
L398L
sS'32:72'
p68
L575L
sS'27:101'
p69
L601L
sS'14:31'
p70
L374L
sS'10:27'
p71
L347L
sS'4:20'
p72
L310L
sS'15:32'
p73
L386L
sS'27:112'
p74
L625L
sS'8:57'
p75
L686L
sS'15:39'
p76
L477L
sS'17:109'
p77
L663L
sS'13:65'
p78
L628L
sS'35:71'
p79
L545L
sS'33:66'
p80
L535L
sS'14:28'
p81
L343L
sS'11:115'
p82
L735L
sS'19:86'
p83
L653L
sS'48:102'
p84
L493L
sS'3:8'
p85
L229L
sS'13:48'
p86
L578L
sS'3:7'
p87
L203L
sS'30:62'
p88
L554L
sS'23:74'
p89
L616L
sS'32:96'
p90
L563L
sS'16:61'
p91
L634L
sS'20:49'
p92
L538L
sS'52:104'
p93
L499L
sS'8:31'
p94
L408L
sS'29:73'
p95
L570L
sS'29:75'
p96
L603L
sS'39:78'
p97
L516L
sS'11:82'
p98
L641L
sS'10:39'
p99
L499L
sS'10:32'
p100
L408L
sS'32:84'
p101
L570L
sS'47:96'
p102
L493L
sS'23:61'
p103
L579L
sS'2:4'
p104
L231L
sS'4:19'
p105
L290L
sS'14:48'
p106
L569L
sS'20:55'
p107
L589L
sS'4:14'
p108
L238L
sS'4:16'
p109
L255L
sS'34:68'
p110
L552L
sS'2:8'
p111
L219L
sS'19:39'
p112
L447L
sS'26:56'
p113
L531L
sS'27:61'
p114
L565L
sS'35:100'
p115
L544L
sS'42:123'
p116
L564L
sS'13:26'
p117
L310L
sS'27:69'
p118
L579L
sS'26:58'
p119
L564L
sS'26:59'
p120
L564L
sS'16:45'
p121
L519L
sS'15:86'
p122
L661L
sS'10:21'
p123
L275L
sS'10:22'
p124
L271L
sS'36:108'
p125
L542L
sS'5:40'
p126
L579L
sS'14:78'
p127
L646L
sS'20:68'
p128
L594L
sS'21:44'
p129
L494L
sS'20:62'
p130
L614L
s.