(dp0
S'11:23'
p1
L539L
sS'11:22'
p2
L538L
sS'27:59'
p3
L1111L
sS'13:35'
p4
L869L
sS'27:55'
p5
L1044L
sS'7:57'
p6
L1296L
sS'12:47'
p7
L1151L
sS'16:33'
p8
L734L
sS'23:47'
p9
L978L
sS'16:34'
p10
L806L
sS'16:36'
p11
L850L
sS'10:48'
p12
L1129L
sS'52:128'
p13
L994L
sS'20:52'
p14
L1130L
sS'5:32'
p15
L873L
sS'5:33'
p16
L901L
sS'31:89'
p17
L1125L
sS'17:71'
p18
L1225L
sS'3:7'
p19
L360L
sS'3:18'
p20
L549L
sS'3:14'
p21
L483L
sS'3:15'
p22
L491L
sS'18:41'
p23
L923L
sS'7:25'
p24
L630L
sS'3:11'
p25
L420L
sS'1:8'
p26
L695L
sS'11:32'
p27
L791L
sS'27:54'
p28
L1052L
sS'11:34'
p29
L867L
sS'42:85'
p30
L976L
sS'4:8'
p31
L364L
sS'1:4'
p32
L601L
sS'28:128'
p33
L1183L
sS'1:6'
p34
L679L
sS'1:7'
p35
L527L
sS'12:37'
p36
L956L
sS'12:30'
p37
L729L
sS'27:58'
p38
L1111L
sS'21:66'
p39
L1212L
sS'15:128'
p40
L1331L
sS'5:24'
p41
L674L
sS'54:128'
p42
L988L
sS'22:73'
p43
L1213L
sS'2:10'
p44
L430L
sS'2:16'
p45
L506L
sS'9:25'
p46
L624L
sS'16:32'
p47
L747L
sS'34:68'
p48
L1039L
sS'2:8'
p49
L391L
sS'5:26'
p50
L686L
sS'40:103'
p51
L1009L
sS'21:46'
p52
L962L
sS'2:27'
p53
L829L
sS'43:100'
p54
L933L
sS'17:55'
p55
L1188L
sS'6:18'
p56
L498L
sS'30:92'
p57
L1110L
sS'43:108'
p58
L1065L
sS'6:14'
p59
L414L
sS'6:13'
p60
L374L
sS'6:12'
p61
L388L
sS'22:49'
p62
L1032L
sS'29:83'
p63
L1130L
sS'20:40'
p64
L923L
sS'13:26'
p65
L601L
sS'5:12'
p66
L394L
sS'5:10'
p67
L389L
sS'5:11'
p68
L395L
sS'20:42'
p69
L913L
sS'18:37'
p70
L888L
sS'9:18'
p71
L498L
sS'51:113'
p72
L876L
sS'7:16'
p73
L419L
sS'17:117'
p74
L1242L
sS'22:51'
p75
L1085L
sS'22:54'
p76
L1100L
sS'22:55'
p77
L1125L
sS'39:81'
p78
L983L
sS'11:51'
p79
L1201L
sS'45:93'
p80
L998L
sS'7:14'
p81
L408L
sS'6:24'
p82
L655L
sS'32:120'
p83
L1151L
sS'3:24'
p84
L702L
sS'3:27'
p85
L779L
sS'3:26'
p86
L714L
sS'3:21'
p87
L628L
sS'3:23'
p88
L650L
sS'14:34'
p89
L827L
sS'14:30'
p90
L731L
sS'4:20'
p91
L600L
sS'15:33'
p92
L765L
sS'4:29'
p93
L800L
sS'16:41'
p94
L974L
sS'51:108'
p95
L929L
sS'29:58'
p96
L1060L
sS'6:22'
p97
L591L
sS'28:58'
p98
L1077L
sS'24:50'
p99
L1046L
sS'4:9'
p100
L348L
sS'28:57'
p101
L1108L
sS'5:46'
p102
L1205L
sS'14:29'
p103
L682L
sS'32:69'
p104
L1087L
sS'22:117'
p105
L1233L
sS'8:20'
p106
L533L
sS'28:65'
p107
L1090L
sS'6:49'
p108
L1250L
sS'48:106'
p109
L984L
sS'7:21'
p110
L565L
sS'3:8'
p111
L381L
sS'3:9'
p112
L381L
sS'24:66'
p113
L1115L
sS'34:117'
p114
L1081L
sS'3:6'
p115
L314L
sS'13:46'
p116
L1072L
sS'34:111'
p117
L1106L
sS'11:73'
p118
L1295L
sS'47:112'
p119
L957L
sS'16:66'
p120
L1239L
sS'47:118'
p121
L1005L
sS'19:95'
p122
L1201L
sS'46:128'
p123
L1072L
sS'15:51'
p124
L1172L
sS'20:45'
p125
L998L
sS'7:15'
p126
L412L
sS'20:47'
p127
L1044L
sS'20:46'
p128
L1029L
sS'7:18'
p129
L493L
sS'9:62'
p130
L1314L
sS'9:67'
p131
L1352L
sS'28:70'
p132
L1130L
sS'6:57'
p133
L1340L
sS'28:79'
p134
L1138L
sS'6:16'
p135
L432L
sS'29:120'
p136
L1196L
sS'12:120'
p137
L1384L
sS'12:25'
p138
L594L
sS'9:52'
p139
L1250L
sS'12:124'
p140
L1386L
sS'24:126'
p141
L1159L
sS'32:86'
p142
L1058L
sS'23:63'
p143
L1188L
sS'10:35'
p144
L890L
sS'2:7'
p145
L406L
sS'2:6'
p146
L376L
sS'2:5'
p147
L385L
sS'2:4'
p148
L424L
sS'25:82'
p149
L1217L
sS'25:81'
p150
L1211L
sS'5:51'
p151
L1319L
sS'4:11'
p152
L395L
sS'4:10'
p153
L388L
sS'4:13'
p154
L409L
sS'4:12'
p155
L402L
sS'19:38'
p156
L844L
sS'13:27'
p157
L638L
sS'27:65'
p158
L1126L
sS'31:116'
p159
L1128L
sS'1:5'
p160
L588L
sS'10:25'
p161
L624L
sS'10:26'
p162
L628L
sS'10:21'
p163
L530L
sS'10:22'
p164
L537L
sS'50:121'
p165
L990L
sS'9:43'
p166
L1067L
sS'23:58'
p167
L1145L
sS'8:17'
p168
L470L
sS'24:62'
p169
L1165L
sS'8:18'
p170
L469L
sS'33:96'
p171
L1112L
sS'7:36'
p172
L928L
sS'14:74'
p173
L1254L
s.