(dp0
S'59:119'
p1
L1126L
sS'45:107'
p2
L1105L
sS'25:109'
p3
L1117L
sS'23:62'
p4
L1113L
sS'28:91'
p5
L1148L
sS'10:53'
p6
L1172L
sS'53:115'
p7
L1118L
sS'39:116'
p8
L1127L
sS'52:120'
p9
L1088L
sS'41:118'
p10
L1114L
sS'19:45'
p11
L1119L
sS'39:118'
p12
L1152L
sS'63:128'
p13
L1094L
sS'52:128'
p14
L1090L
sS'19:42'
p15
L1118L
sS'54:115'
p16
L1093L
sS'54:110'
p17
L1088L
sS'8:43'
p18
L1164L
sS'46:92'
p19
L1087L
sS'22:60'
p20
L1121L
sS'51:108'
p21
L1101L
sS'54:119'
p22
L1089L
sS'11:92'
p23
L1192L
sS'55:128'
p24
L1093L
sS'18:48'
p25
L1125L
sS'9:30'
p26
L1130L
sS'48:121'
p27
L1116L
sS'3:14'
p28
L1315L
sS'3:16'
p29
L1283L
sS'19:51'
p30
L1122L
sS'48:128'
p31
L1145L
sS'48:97'
p32
L1087L
sS'42:89'
p33
L1115L
sS'45:116'
p34
L1150L
sS'42:85'
p35
L1100L
sS'42:84'
p36
L1140L
sS'45:119'
p37
L1144L
sS'1:4'
p38
L5692L
sS'1:5'
p39
L4795L
sS'25:50'
p40
L1116L
sS'56:128'
p41
L1079L
sS'36:128'
p42
L1176L
sS'10:47'
p43
L1153L
sS'10:45'
p44
L1168L
sS'56:122'
p45
L1122L
sS'56:120'
p46
L1115L
sS'20:40'
p47
L1114L
sS'5:23'
p48
L1154L
sS'5:21'
p49
L1168L
sS'55:110'
p50
L1128L
sS'32:103'
p51
L1111L
sS'55:112'
p52
L1075L
sS'54:128'
p53
L1075L
sS'2:11'
p54
L1495L
sS'22:77'
p55
L1147L
sS'49:110'
p56
L1102L
sS'61:128'
p57
L1085L
sS'57:122'
p58
L1087L
sS'57:121'
p59
L1120L
sS'24:98'
p60
L1152L
sS'57:128'
p61
L1109L
sS'55:111'
p62
L1105L
sS'51:125'
p63
L1120L
sS'62:128'
p64
L1074L
sS'44:113'
p65
L1103L
sS'44:111'
p66
L1104L
sS'39:99'
p67
L1125L
sS'40:108'
p68
L1126L
sS'62:125'
p69
L1079L
sS'62:124'
p70
L1129L
sS'60:121'
p71
L1110L
sS'60:120'
p72
L1079L
sS'11:47'
p73
L1146L
sS'22:44'
p74
L1127L
sS'52:104'
p75
L1070L
sS'17:55'
p76
L1128L
sS'43:104'
p77
L1136L
sS'12:29'
p78
L1106L
sS'19:63'
p79
L1122L
sS'60:128'
p80
L1106L
sS'34:128'
p81
L1162L
sS'29:83'
p82
L1115L
sS'29:80'
p83
L1131L
sS'12:59'
p84
L1160L
sS'18:66'
p85
L1157L
sS'16:90'
p86
L1150L
sS'57:123'
p87
L1097L
sS'26:53'
p88
L1105L
sS'5:13'
p89
L1271L
sS'49:108'
p90
L1115L
sS'33:128'
p91
L1203L
sS'40:81'
p92
L1098L
sS'40:80'
p93
L1097L
sS'35:98'
p94
L1111L
sS'3:30'
p95
L1231L
sS'15:57'
p96
L1146L
sS'47:106'
p97
L1094L
sS'51:112'
p98
L1101L
sS'19:72'
p99
L1140L
sS'51:118'
p100
L1122L
sS'61:122'
p101
L1084L
sS'20:46'
p102
L1114L
sS'48:99'
p103
L1079L
sS'43:110'
p104
L1132L
sS'6:29'
p105
L1160L
sS'26:94'
p106
L1163L
sS'9:80'
p107
L1227L
sS'43:116'
p108
L1126L
sS'30:123'
p109
L1175L
sS'45:90'
p110
L1088L
sS'34:92'
p111
L1124L
sS'25:71'
p112
L1119L
sS'30:125'
p113
L1163L
sS'49:117'
p114
L1102L
sS'61:123'
p115
L1100L
sS'23:92'
p116
L1136L
sS'14:38'
p117
L1131L
sS'32:128'
p118
L1203L
sS'14:35'
p119
L1192L
sS'27:100'
p120
L1108L
sS'49:118'
p121
L1122L
sS'43:115'
p122
L1120L
sS'40:96'
p123
L1119L
sS'43:125'
p124
L1159L
sS'56:113'
p125
L1099L
sS'35:116'
p126
L1168L
sS'6:36'
p127
L1182L
sS'43:87'
p128
L1097L
sS'6:33'
p129
L1164L
sS'40:128'
p130
L1172L
sS'51:107'
p131
L1096L
sS'48:114'
p132
L1095L
sS'48:115'
p133
L1093L
sS'51:103'
p134
L1095L
sS'51:102'
p135
L1073L
sS'53:119'
p136
L1087L
sS'35:71'
p137
L1113L
sS'43:128'
p138
L1154L
sS'64:128'
p139
L1056L
sS'26:99'
p140
L1138L
sS'34:81'
p141
L1093L
sS'33:67'
p142
L1117L
sS'43:121'
p143
L1097L
sS'28:75'
p144
L1122L
sS'38:122'
p145
L1158L
sS'32:64'
p146
L1105L
sS'20:128'
p147
L1208L
sS'27:113'
p148
L1180L
sS'43:88'
p149
L1104L
sS'52:106'
p150
L1095L
sS'45:95'
p151
L1118L
sS'32:82'
p152
L1118L
sS'15:109'
p153
L1193L
sS'15:48'
p154
L1123L
sS'6:25'
p155
L1145L
sS'41:82'
p156
L1091L
sS'28:67'
p157
L1121L
sS'33:75'
p158
L1075L
sS'53:107'
p159
L1100L
sS'53:106'
p160
L1081L
sS'48:109'
p161
L1106L
sS'48:108'
p162
L1123L
sS'30:109'
p163
L1157L
sS'57:114'
p164
L1087L
sS'57:115'
p165
L1095L
sS'58:119'
p166
L1089L
sS'50:101'
p167
L1080L
sS'11:78'
p168
L1179L
sS'63:127'
p169
L1111L
sS'29:116'
p170
L1181L
sS'43:86'
p171
L1103L
sS'13:41'
p172
L1141L
sS'41:83'
p173
L1102L
sS'41:104'
p174
L1099L
sS'11:71'
p175
L1172L
sS'58:117'
p176
L1095L
sS'58:116'
p177
L1091L
sS'43:107'
p178
L1128L
sS'59:128'
p179
L1121L
sS'59:125'
p180
L1090L
sS'59:124'
p181
L1109L
sS'30:61'
p182
L1094L
sS'59:120'
p183
L1076L
sS'49:99'
p184
L1087L
sS'46:128'
p185
L1132L
sS'34:76'
p186
L1116L
sS'34:70'
p187
L1091L
sS'25:92'
p188
L1125L
sS'8:33'
p189
L1156L
sS'46:122'
p190
L1140L
sS'52:105'
p191
L1064L
sS'28:70'
p192
L1138L
sS'30:111'
p193
L1156L
sS'35:113'
p194
L1152L
sS'34:121'
p195
L1171L
sS'58:128'
p196
L1127L
sS'26:101'
p197
L1153L
sS'45:128'
p198
L1114L
sS'45:110'
p199
L1133L
sS'50:114'
p200
L1136L
sS'50:117'
p201
L1123L
sS'39:79'
p202
L1100L
sS'29:125'
p203
L1158L
sS'56:115'
p204
L1096L
sS'42:88'
p205
L1082L
sS'59:118'
p206
L1077L
sS'12:123'
p207
L1245L
sS'48:118'
p208
L1109L
sS'56:112'
p209
L1092L
sS'38:108'
p210
L1124L
sS'46:111'
p211
L1110L
sS'53:128'
p212
L1095L
sS'47:127'
p213
L1148L
sS'47:95'
p214
L1099L
sS'38:105'
p215
L1110L
sS'12:128'
p216
L1251L
sS'38:100'
p217
L1132L
sS'38:102'
p218
L1127L
sS'56:114'
p219
L1072L
sS'2:4'
p220
L2690L
sS'30:95'
p221
L1114L
sS'5:53'
p222
L1193L
sS'20:58'
p223
L1142L
sS'44:128'
p224
L1167L
sS'34:69'
p225
L1117L
sS'36:73'
p226
L1092L
sS'60:122'
p227
L1073L
sS'38:77'
p228
L1074L
sS'38:76'
p229
L1104L
sS'56:125'
p230
L1131L
sS'36:78'
p231
L1090L
sS'36:74'
p232
L1110L
sS'42:128'
p233
L1099L
sS'28:128'
p234
L1188L
sS'41:102'
p235
L1108L
sS'36:101'
p236
L1087L
sS'45:105'
p237
L1088L
sS'16:41'
p238
L1129L
sS'50:125'
p239
L1138L
sS'16:48'
p240
L1130L
sS'18:65'
p241
L1145L
sS'63:126'
p242
L1090L
sS'46:104'
p243
L1093L
sS'33:92'
p244
L1142L
sS'21:42'
p245
L1095L
sS'33:90'
p246
L1123L
sS'31:62'
p247
L1097L
sS'17:65'
p248
L1138L
sS'54:108'
p249
L1115L
sS'54:109'
p250
L1111L
sS'12:39'
p251
L1130L
sS'17:128'
p252
L1218L
sS'7:32'
p253
L1160L
sS'21:43'
p254
L1095L
sS'7:31'
p255
L1154L
s.