(dp0
S'45:104'
p1
L1928L
sS'11:25'
p2
L1935L
sS'47:96'
p3
L1869L
sS'45:101'
p4
L1933L
sS'31:89'
p5
L2032L
sS'47:118'
p6
L2035L
sS'42:112'
p7
L1952L
sS'11:28'
p8
L1983L
sS'10:51'
p9
L2049L
sS'39:110'
p10
L1993L
sS'10:52'
p11
L2106L
sS'19:49'
p12
L2004L
sS'38:113'
p13
L2065L
sS'41:118'
p14
L1974L
sS'44:88'
p15
L1888L
sS'14:106'
p16
L2176L
sS'20:88'
p17
L2066L
sS'41:111'
p18
L2044L
sS'50:114'
p19
L1987L
sS'46:98'
p20
L1908L
sS'41:83'
p21
L1873L
sS'54:110'
p22
L1911L
sS'40:82'
p23
L1871L
sS'46:92'
p24
L1939L
sS'46:93'
p25
L1877L
sS'40:103'
p26
L1898L
sS'46:94'
p27
L1891L
sS'46:95'
p28
L1923L
sS'40:80'
p29
L1875L
sS'49:128'
p30
L2029L
sS'3:14'
p31
L2277L
sS'3:16'
p32
L2233L
sS'55:124'
p33
L1999L
sS'48:128'
p34
L2096L
sS'48:96'
p35
L1893L
sS'48:97'
p36
L1855L
sS'35:99'
p37
L1947L
sS'44:89'
p38
L1868L
sS'5:22'
p39
L2039L
sS'42:85'
p40
L1873L
sS'42:106'
p41
L1933L
sS'37:94'
p42
L2004L
sS'42:86'
p43
L1878L
sS'1:4'
p44
L9070L
sS'1:5'
p45
L7820L
sS'1:6'
p46
L6540L
sS'1:7'
p47
L5270L
sS'25:51'
p48
L1965L
sS'25:52'
p49
L1953L
sS'36:128'
p50
L2132L
sS'20:67'
p51
L2029L
sS'19:56'
p52
L1989L
sS'55:110'
p53
L1889L
sS'49:102'
p54
L1924L
sS'44:95'
p55
L1898L
sS'39:112'
p56
L2107L
sS'55:116'
p57
L1936L
sS'35:97'
p58
L1954L
sS'5:27'
p59
L2041L
sS'55:111'
p60
L1986L
sS'22:70'
p61
L2021L
sS'47:105'
p62
L1882L
sS'49:105'
p63
L1925L
sS'9:26'
p64
L1941L
sS'23:47'
p65
L1974L
sS'13:93'
p66
L2066L
sS'57:126'
p67
L1977L
sS'52:122'
p68
L1975L
sS'57:128'
p69
L1981L
sS'61:124'
p70
L1896L
sS'47:101'
p71
L1911L
sS'16:32'
p72
L1997L
sS'23:76'
p73
L1994L
sS'51:121'
p74
L1959L
sS'28:116'
p75
L2057L
sS'44:90'
p76
L1957L
sS'44:91'
p77
L1861L
sS'44:92'
p78
L1864L
sS'14:128'
p79
L2183L
sS'51:128'
p80
L2000L
sS'44:97'
p81
L1909L
sS'43:102'
p82
L1972L
sS'60:120'
p83
L1911L
sS'22:45'
p84
L2001L
sS'22:44'
p85
L2007L
sS'13:94'
p86
L2163L
sS'13:117'
p87
L2178L
sS'52:106'
p88
L1857L
sS'17:57'
p89
L2045L
sS'12:26'
p90
L1940L
sS'12:27'
p91
L1954L
sS'30:96'
p92
L1942L
sS'10:71'
p93
L2117L
sS'46:99'
p94
L1923L
sS'41:94'
p95
L1950L
sS'36:75'
p96
L1914L
sS'5:18'
p97
L2069L
sS'16:90'
p98
L2052L
sS'5:17'
p99
L2104L
sS'5:14'
p100
L2167L
sS'36:74'
p101
L1901L
sS'16:118'
p102
L2162L
sS'48:98'
p103
L1891L
sS'33:128'
p104
L2109L
sS'40:81'
p105
L1948L
sS'34:76'
p106
L1872L
sS'19:43'
p107
L2028L
sS'49:100'
p108
L1908L
sS'18:37'
p109
L1986L
sS'8:48'
p110
L2105L
sS'9:19'
p111
L2024L
sS'47:102'
p112
L1960L
sS'22:128'
p113
L2207L
sS'44:117'
p114
L2053L
sS'17:116'
p115
L2110L
sS'44:100'
p116
L1916L
sS'34:68'
p117
L1877L
sS'44:107'
p118
L1978L
sS'30:128'
p119
L2081L
sS'26:93'
p120
L1975L
sS'9:81'
p121
L2159L
sS'43:117'
p122
L2034L
sS'52:117'
p123
L1940L
sS'26:99'
p124
L2040L
sS'25:75'
p125
L1940L
sS'45:90'
p126
L1901L
sS'30:127'
p127
L2090L
sS'21:104'
p128
L2071L
sS'36:82'
p129
L1980L
sS'43:90'
p130
L1903L
sS'31:72'
p131
L1894L
sS'3:22'
p132
L2154L
sS'32:128'
p133
L2093L
sS'27:107'
p134
L2066L
sS'14:33'
p135
L1989L
sS'31:78'
p136
L1956L
sS'15:35'
p137
L1987L
sS'15:36'
p138
L1980L
sS'50:128'
p139
L2052L
sS'40:96'
p140
L1953L
sS'38:128'
p141
L2117L
sS'18:101'
p142
L2074L
sS'56:113'
p143
L1909L
sS'56:112'
p144
L1894L
sS'53:114'
p145
L1939L
sS'43:89'
p146
L1887L
sS'37:121'
p147
L2030L
sS'53:111'
p148
L1907L
sS'51:106'
p149
L1916L
sS'51:105'
p150
L1910L
sS'51:103'
p151
L1840L
sS'37:128'
p152
L2085L
sS'46:97'
p153
L1883L
sS'45:93'
p154
L1879L
sS'11:60'
p155
L2061L
sS'64:128'
p156
L1934L
sS'39:97'
p157
L1919L
sS'39:121'
p158
L1982L
sS'34:109'
p159
L2041L
sS'41:95'
p160
L1941L
sS'13:75'
p161
L2097L
sS'28:56'
p162
L1955L
sS'45:91'
p163
L1899L
sS'13:71'
p164
L2070L
sS'47:107'
p165
L1852L
sS'33:100'
p166
L2019L
sS'43:86'
p167
L1958L
sS'43:87'
p168
L1912L
sS'48:102'
p169
L1869L
sS'18:89'
p170
L2060L
sS'19:81'
p171
L2036L
sS'19:83'
p172
L2073L
sS'41:97'
p173
L1941L
sS'30:74'
p174
L2012L
sS'45:96'
p175
L1906L
sS'15:42'
p176
L2012L
sS'41:82'
p177
L1905L
sS'37:110'
p178
L1956L
sS'53:107'
p179
L1920L
sS'53:106'
p180
L1891L
sS'33:71'
p181
L1962L
sS'33:67'
p182
L1910L
sS'42:92'
p183
L1965L
sS'21:128'
p184
L2171L
sS'48:100'
p185
L1848L
sS'57:114'
p186
L1897L
sS'62:126'
p187
L1922L
sS'50:102'
p188
L1873L
sS'50:103'
p189
L1890L
sS'50:100'
p190
L1848L
sS'50:101'
p191
L1870L
sS'50:106'
p192
L1883L
sS'14:73'
p193
L2061L
sS'34:119'
p194
L2109L
sS'60:121'
p195
L1861L
sS'63:128'
p196
L1947L
sS'24:68'
p197
L1991L
sS'55:123'
p198
L1960L
sS'58:117'
p199
L1969L
sS'58:116'
p200
L1914L
sS'17:50'
p201
L2040L
sS'30:68'
p202
L1960L
sS'30:69'
p203
L1950L
sS'32:99'
p204
L2004L
sS'59:128'
p205
L1942L
sS'38:95'
p206
L1906L
sS'23:110'
p207
L2114L
sS'30:60'
p208
L1917L
sS'1:11'
p209
L3804L
sS'59:121'
p210
L1873L
sS'23:70'
p211
L2023L
sS'49:99'
p212
L1883L
sS'49:98'
p213
L1892L
sS'34:75'
p214
L1907L
sS'43:99'
p215
L1932L
sS'15:51'
p216
L2045L
sS'34:71'
p217
L1926L
sS'25:90'
p218
L2023L
sS'34:72'
p219
L1935L
sS'52:104'
p220
L1866L
sS'34:78'
p221
L1945L
sS'14:53'
p222
L1972L
sS'52:105'
p223
L1909L
sS'12:62'
p224
L2032L
sS'27:70'
p225
L2014L
sS'47:94'
p226
L1836L
sS'23:53'
p227
L1971L
sS'39:79'
p228
L1929L
sS'42:88'
p229
L1877L
sS'24:79'
p230
L1985L
sS'50:116'
p231
L2049L
sS'43:88'
p232
L1894L
sS'8:81'
p233
L2218L
sS'59:119'
p234
L1897L
sS'12:121'
p235
L2192L
sS'46:110'
p236
L1912L
sS'38:89'
p237
L1926L
sS'53:128'
p238
L1876L
sS'47:128'
p239
L2037L
sS'23:67'
p240
L2003L
sS'47:97'
p241
L1917L
sS'38:87'
p242
L1929L
sS'42:91'
p243
L1932L
sS'38:81'
p244
L1866L
sS'10:34'
p245
L2042L
sS'20:52'
p246
L2016L
sS'2:6'
p247
L3546L
sS'2:4'
p248
L4616L
sS'48:99'
p249
L1897L
sS'42:84'
p250
L1918L
sS'44:128'
p251
L2052L
sS'25:54'
p252
L1925L
sS'34:69'
p253
L1940L
sS'36:73'
p254
L1895L
sS'27:63'
p255
L1954L
sS'37:74'
p256
L1932L
sS'38:77'
p257
L1910L
sS'26:53'
p258
L1967L
sS'48:101'
p259
L1849L
sS'31:116'
p260
L2092L
sS'53:120'
p261
L2078L
sS'21:46'
p262
L1976L
sS'10:20'
p263
L1964L
sS'35:71'
p264
L1899L
sS'41:106'
p265
L1944L
sS'21:47'
p266
L1984L
sS'57:115'
p267
L1908L
sS'7:36'
p268
L2074L
sS'47:98'
p269
L1895L
sS'5:44'
p270
L2181L
sS'31:63'
p271
L1919L
sS'9:49'
p272
L2138L
sS'29:115'
p273
L2024L
sS'54:108'
p274
L1897L
sS'54:109'
p275
L1879L
sS'47:95'
p276
L1858L
sS'51:102'
p277
L1902L
sS'20:69'
p278
L2020L
sS'38:85'
p279
L1966L
sS'18:51'
p280
L2017L
sS'15:71'
p281
L2046L
sS'15:75'
p282
L2068L
sS'63:127'
p283
L1934L
s.