(dp0
S'11:26'
p1
L292L
sS'7:58'
p2
L644L
sS'25:108'
p3
L601L
sS'27:58'
p4
L501L
sS'25:102'
p5
L566L
sS'28:93'
p6
L552L
sS'12:47'
p7
L552L
sS'20:86'
p8
L591L
sS'10:55'
p9
L594L
sS'32:80'
p10
L539L
sS'38:103'
p11
L562L
sS'54:116'
p12
L475L
sS'20:79'
p13
L619L
sS'48:124'
p14
L497L
sS'3:19'
p15
L263L
sS'9:33'
p16
L403L
sS'21:72'
p17
L570L
sS'3:10'
p18
L197L
sS'7:24'
p19
L299L
sS'7:26'
p20
L325L
sS'1:9'
p21
L221L
sS'5:22'
p22
L289L
sS'7:46'
p23
L586L
sS'1:4'
p24
L239L
sS'7:42'
p25
L543L
sS'31:82'
p26
L560L
sS'12:38'
p27
L457L
sS'20:91'
p28
L616L
sS'12:35'
p29
L424L
sS'19:57'
p30
L579L
sS'12:36'
p31
L428L
sS'12:30'
p32
L353L
sS'4:47'
p33
L616L
sS'4:44'
p34
L601L
sS'32:105'
p35
L563L
sS'18:71'
p36
L621L
sS'55:112'
p37
L434L
sS'2:12'
p38
L208L
sS'5:29'
p39
L373L
sS'4:17'
p40
L248L
sS'9:26'
p41
L300L
sS'8:75'
p42
L652L
sS'57:125'
p43
L436L
sS'9:20'
p44
L252L
sS'43:128'
p45
L549L
sS'2:11'
p46
L208L
sS'9:28'
p47
L339L
sS'7:73'
p48
L676L
sS'7:70'
p49
L662L
sS'7:76'
p50
L619L
sS'7:77'
p51
L673L
sS'44:115'
p52
L512L
sS'11:44'
p53
L525L
sS'30:99'
p54
L517L
sS'2:22'
p55
L325L
sS'2:20'
p56
L328L
sS'17:58'
p57
L577L
sS'5:25'
p58
L339L
sS'30:95'
p59
L561L
sS'16:97'
p60
L615L
sS'18:65'
p61
L583L
sS'5:18'
p62
L239L
sS'16:90'
p63
L608L
sS'9:93'
p64
L635L
sS'9:90'
p65
L683L
sS'9:95'
p66
L648L
sS'3:39'
p67
L549L
sS'8:44'
p68
L542L
sS'12:56'
p69
L603L
sS'3:30'
p70
L411L
sS'3:31'
p71
L439L
sS'35:91'
p72
L548L
sS'3:34'
p73
L483L
sS'8:80'
p74
L714L
sS'5:33'
p75
L439L
sS'34:97'
p76
L555L
sS'39:122'
p77
L528L
sS'30:120'
p78
L586L
sS'6:21'
p79
L278L
sS'24:49'
p80
L476L
sS'15:58'
p81
L581L
sS'6:25'
p82
L307L
sS'18:102'
p83
L593L
sS'32:72'
p84
L534L
sS'14:39'
p85
L449L
sS'14:35'
p86
L415L
sS'4:27'
p87
L357L
sS'40:90'
p88
L517L
sS'15:39'
p89
L451L
sS'37:123'
p90
L505L
sS'53:111'
p91
L473L
sS'40:127'
p92
L528L
sS'22:58'
p93
L550L
sS'39:92'
p94
L505L
sS'39:94'
p95
L511L
sS'64:128'
p96
L432L
sS'11:69'
p97
L628L
sS'8:38'
p98
L483L
sS'6:20'
p99
L270L
sS'25:66'
p100
L553L
sS'13:71'
p101
L621L
sS'27:93'
p102
L574L
sS'4:36'
p103
L520L
sS'18:86'
p104
L615L
sS'18:85'
p105
L591L
sS'8:28'
p106
L336L
sS'8:29'
p107
L349L
sS'4:35'
p108
L492L
sS'9:39'
p109
L480L
sS'33:72'
p110
L497L
sS'6:49'
p111
L617L
sS'10:102'
p112
L604L
sS'24:61'
p113
L548L
sS'13:128'
p114
L711L
sS'29:114'
p115
L550L
sS'24:65'
p116
L575L
sS'17:83'
p117
L619L
sS'11:77'
p118
L655L
sS'41:85'
p119
L481L
sS'18:120'
p120
L643L
sS'23:76'
p121
L577L
sS'19:96'
p122
L596L
sS'49:98'
p123
L473L
sS'15:52'
p124
L562L
sS'8:39'
p125
L505L
sS'34:76'
p126
L510L
sS'7:18'
p127
L228L
sS'9:61'
p128
L630L
sS'3:13'
p129
L203L
sS'14:51'
p130
L560L
sS'1:5'
p131
L241L
sS'27:70'
p132
L582L
sS'6:57'
p133
L639L
sS'13:52'
p134
L557L
sS'13:53'
p135
L575L
sS'6:17'
p136
L227L
sS'26:105'
p137
L603L
sS'29:122'
p138
L577L
sS'22:84'
p139
L582L
sS'19:105'
p140
L611L
sS'9:51'
p141
L575L
sS'23:62'
p142
L573L
sS'33:84'
p143
L527L
sS'10:35'
p144
L438L
sS'23:61'
p145
L546L
sS'20:52'
p146
L524L
sS'25:82'
p147
L589L
sS'21:58'
p148
L571L
sS'15:66'
p149
L588L
sS'14:44'
p150
L511L
sS'5:51'
p151
L630L
sS'5:56'
p152
L656L
sS'5:57'
p153
L677L
sS'2:9'
p154
L191L
sS'37:74'
p155
L499L
sS'22:108'
p156
L553L
sS'6:68'
p157
L694L
sS'48:98'
p158
L458L
sS'12:50'
p159
L557L
sS'15:85'
p160
L615L
sS'10:25'
p161
L311L
sS'50:128'
p162
L522L
sS'22:53'
p163
L525L
sS'9:40'
p164
L521L
sS'5:47'
p165
L581L
sS'23:58'
p166
L548L
sS'9:44'
p167
L550L
sS'5:43'
p168
L553L
sS'9:46'
p169
L547L
sS'17:63'
p170
L598L
sS'23:56'
p171
L535L
sS'5:17'
p172
L241L
sS'15:74'
p173
L626L
sS'14:75'
p174
L635L
sS'7:31'
p175
L395L
s.