(dp0
S'59:119'
p1
L3747L
sS'37:88'
p2
L3813L
sS'31:84'
p3
L3830L
sS'31:81'
p4
L3916L
sS'31:80'
p5
L3872L
sS'62:126'
p6
L3739L
sS'55:111'
p7
L3713L
sS'20:86'
p8
L3985L
sS'16:34'
p9
L3984L
sS'45:90'
p10
L3816L
sS'19:45'
p11
L3860L
sS'50:108'
p12
L3769L
sS'52:128'
p13
L3795L
sS'19:42'
p14
L3930L
sS'2:7'
p15
L6965L
sS'46:98'
p16
L3808L
sS'56:121'
p17
L3787L
sS'12:108'
p18
L4047L
sS'46:92'
p19
L3691L
sS'46:93'
p20
L3722L
sS'53:111'
p21
L3795L
sS'55:128'
p22
L3875L
sS'18:49'
p23
L3971L
sS'49:128'
p24
L3877L
sS'49:127'
p25
L3953L
sS'9:60'
p26
L4243L
sS'57:115'
p27
L3730L
sS'3:13'
p28
L4734L
sS'48:96'
p29
L3716L
sS'27:54'
p30
L3897L
sS'44:89'
p31
L3746L
sS'42:85'
p32
L3824L
sS'51:103'
p33
L3761L
sS'1:4'
p34
L25724L
sS'29:58'
p35
L3836L
sS'13:85'
p36
L4033L
sS'36:128'
p37
L3975L
sS'59:121'
p38
L3787L
sS'25:59'
p39
L3819L
sS'12:47'
p40
L4130L
sS'13:88'
p41
L4064L
sS'32:106'
p42
L3914L
sS'24:56'
p43
L3830L
sS'55:116'
p44
L3820L
sS'21:56'
p45
L4035L
sS'55:110'
p46
L3836L
sS'54:125'
p47
L3803L
sS'21:62'
p48
L3915L
sS'21:63'
p49
L3977L
sS'15:125'
p50
L4150L
sS'61:128'
p51
L3812L
sS'57:121'
p52
L3868L
sS'57:120'
p53
L3821L
sS'9:23'
p54
L3985L
sS'14:40'
p55
L3977L
sS'61:122'
p56
L3786L
sS'61:123'
p57
L3807L
sS'61:124'
p58
L3681L
sS'30:60'
p59
L3838L
sS'16:106'
p60
L4014L
sS'34:105'
p61
L3901L
sS'44:98'
p62
L3824L
sS'62:128'
p63
L3798L
sS'42:98'
p64
L3910L
sS'42:96'
p65
L3763L
sS'32:91'
p66
L3856L
sS'51:128'
p67
L3851L
sS'62:125'
p68
L3751L
sS'62:124'
p69
L3778L
sS'60:121'
p70
L3786L
sS'60:120'
p71
L3723L
sS'34:124'
p72
L3907L
sS'11:41'
p73
L4061L
sS'52:105'
p74
L3815L
sS'2:20'
p75
L4736L
sS'43:125'
p76
L3954L
sS'60:128'
p77
L3788L
sS'34:128'
p78
L4051L
sS'22:48'
p79
L3972L
sS'35:79'
p80
L3772L
sS'38:77'
p81
L3815L
sS'31:63'
p82
L3826L
sS'27:65'
p83
L3848L
sS'5:13'
p84
L4708L
sS'40:80'
p85
L3743L
sS'35:98'
p86
L3811L
sS'40:85'
p87
L3819L
sS'49:103'
p88
L3867L
sS'27:68'
p89
L3894L
sS'49:107'
p90
L3756L
sS'30:81'
p91
L3822L
sS'54:114'
p92
L3722L
sS'44:103'
p93
L3810L
sS'43:111'
p94
L3810L
sS'39:86'
p95
L3818L
sS'22:52'
p96
L3896L
sS'39:128'
p97
L3991L
sS'50:106'
p98
L3717L
sS'47:102'
p99
L3795L
sS'10:63'
p100
L4077L
sS'34:93'
p101
L3859L
sS'43:91'
p102
L3731L
sS'33:115'
p103
L3933L
sS'32:123'
p104
L3907L
sS'8:81'
p105
L4168L
sS'43:97'
p106
L3843L
sS'31:71'
p107
L3805L
sS'36:88'
p108
L3875L
sS'3:28'
p109
L4396L
sS'32:78'
p110
L3832L
sS'15:31'
p111
L3858L
sS'22:60'
p112
L3877L
sS'40:94'
p113
L3769L
sS'61:127'
p114
L3757L
sS'56:113'
p115
L3696L
sS'56:112'
p116
L3704L
sS'53:114'
p117
L3842L
sS'53:115'
p118
L3764L
sS'53:113'
p119
L3819L
sS'56:115'
p120
L3850L
sS'6:32'
p121
L4081L
sS'45:99'
p122
L3741L
sS'51:106'
p123
L3755L
sS'51:104'
p124
L3745L
sS'29:59'
p125
L3785L
sS'37:128'
p126
L3959L
sS'35:72'
p127
L3866L
sS'34:102'
p128
L3929L
sS'43:128'
p129
L3949L
sS'64:128'
p130
L3758L
sS'41:98'
p131
L3848L
sS'26:65'
p132
L3813L
sS'41:96'
p133
L3797L
sS'34:82'
p134
L3859L
sS'34:83'
p135
L3876L
sS'38:122'
p136
L3942L
sS'6:21'
p137
L4133L
sS'43:86'
p138
L3755L
sS'32:65'
p139
L3862L
sS'47:100'
p140
L3774L
sS'24:49'
p141
L3909L
sS'57:119'
p142
L3755L
sS'27:98'
p143
L3920L
sS'27:117'
p144
L4004L
sS'50:121'
p145
L3819L
sS'15:43'
p146
L3989L
sS'4:34'
p147
L4301L
sS'7:60'
p148
L4198L
sS'8:21'
p149
L4153L
sS'37:110'
p150
L3881L
sS'28:66'
p151
L3855L
sS'53:107'
p152
L3834L
sS'53:106'
p153
L3760L
sS'12:75'
p154
L4105L
sS'28:62'
p155
L3833L
sS'53:109'
p156
L3806L
sS'48:100'
p157
L3786L
sS'57:114'
p158
L3783L
sS'44:95'
p159
L3796L
sS'58:119'
p160
L3708L
sS'58:118'
p161
L3796L
sS'50:100'
p162
L3744L
sS'50:101'
p163
L3743L
sS'63:126'
p164
L3820L
sS'63:127'
p165
L3785L
sS'26:114'
p166
L4051L
sS'26:77'
p167
L3879L
sS'26:118'
p168
L4034L
sS'41:83'
p169
L3768L
sS'58:117'
p170
L3793L
sS'58:116'
p171
L3790L
sS'1:18'
p172
L6754L
sS'30:69'
p173
L3868L
sS'59:128'
p174
L3793L
sS'27:86'
p175
L3971L
sS'1:16'
p176
L7177L
sS'26:85'
p177
L3895L
sS'49:98'
p178
L3807L
sS'46:128'
p179
L3907L
sS'25:90'
p180
L3952L
sS'7:17'
p181
L4229L
sS'7:18'
p182
L4487L
sS'52:104'
p183
L3715L
sS'14:56'
p184
L3996L
sS'34:79'
p185
L3773L
sS'52:106'
p186
L3698L
sS'29:79'
p187
L3844L
sS'39:79'
p188
L3747L
sS'58:128'
p189
L3788L
sS'57:118'
p190
L3852L
sS'48:97'
p191
L3795L
sS'20:101'
p192
L4024L
sS'50:116'
p193
L3904L
sS'24:77'
p194
L3991L
sS'29:123'
p195
L3942L
sS'59:118'
p196
L3686L
sS'33:88'
p197
L3859L
sS'9:52'
p198
L4054L
sS'60:123'
p199
L3665L
sS'47:128'
p200
L3912L
sS'47:94'
p201
L3778L
sS'47:97'
p202
L3763L
sS'10:36'
p203
L3945L
sS'10:35'
p204
L4015L
sS'44:123'
p205
L3922L
sS'2:4'
p206
L10727L
sS'21:59'
p207
L3922L
sS'20:54'
p208
L3961L
sS'4:14'
p209
L5205L
sS'4:16'
p210
L4377L
sS'21:51'
p211
L3988L
sS'2:9'
p212
L6153L
sS'31:126'
p213
L4008L
sS'36:73'
p214
L3880L
sS'37:75'
p215
L3741L
sS'12:59'
p216
L4054L
sS'38:76'
p217
L3759L
sS'12:56'
p218
L3999L
sS'36:79'
p219
L3713L
sS'28:81'
p220
L3852L
sS'28:80'
p221
L3904L
sS'28:83'
p222
L3964L
sS'31:115'
p223
L3897L
sS'10:23'
p224
L3908L
sS'50:124'
p225
L3799L
sS'46:119'
p226
L3877L
sS'50:104'
p227
L3765L
sS'37:91'
p228
L3840L
sS'16:49'
p229
L4044L
sS'18:59'
p230
L3880L
sS'60:125'
p231
L3741L
sS'9:42'
p232
L4099L
sS'9:44'
p233
L4124L
sS'8:17'
p234
L4101L
sS'33:91'
p235
L3837L
sS'56:128'
p236
L3733L
sS'54:108'
p237
L3768L
sS'54:109'
p238
L3812L
sS'30:99'
p239
L3900L
sS'47:95'
p240
L3812L
sS'51:102'
p241
L3808L
sS'16:52'
p242
L4047L
sS'20:66'
p243
L3908L
sS'18:54'
p244
L3967L
sS'17:128'
p245
L4162L
s.