(dp0
S'13:31'
p1
L206L
sS'11:23'
p2
L150L
sS'11:22'
p3
L159L
sS'12:40'
p4
L276L
sS'37:87'
p5
L303L
sS'27:54'
p6
L268L
sS'11:28'
p7
L186L
sS'11:74'
p8
L343L
sS'16:33'
p9
L205L
sS'23:47'
p10
L267L
sS'15:92'
p11
L352L
sS'16:34'
p12
L216L
sS'20:83'
p13
L337L
sS'26:123'
p14
L352L
sS'19:46'
p15
L261L
sS'44:93'
p16
L286L
sS'46:93'
p17
L277L
sS'2:5'
p18
L118L
sS'9:30'
p19
L211L
sS'7:20'
p20
L159L
sS'18:41'
p21
L255L
sS'49:122'
p22
L307L
sS'27:55'
p23
L280L
sS'3:12'
p24
L125L
sS'14:88'
p25
L349L
sS'40:113'
p26
L320L
sS'11:36'
p27
L236L
sS'28:122'
p28
L375L
sS'4:9'
p29
L110L
sS'31:94'
p30
L304L
sS'1:5'
p31
L148L
sS'7:41'
p32
L287L
sS'1:7'
p33
L147L
sS'25:51'
p34
L259L
sS'25:54'
p35
L264L
sS'17:40'
p36
L250L
sS'25:58'
p37
L293L
sS'12:30'
p38
L206L
sS'21:66'
p39
L300L
sS'5:20'
p40
L167L
sS'5:25'
p41
L187L
sS'22:73'
p42
L304L
sS'57:123'
p43
L284L
sS'15:41'
p44
L262L
sS'9:23'
p45
L159L
sS'4:13'
p46
L120L
sS'9:21'
p47
L152L
sS'2:8'
p48
L121L
sS'16:65'
p49
L317L
sS'27:76'
p50
L300L
sS'21:81'
p51
L334L
sS'62:125'
p52
L288L
sS'62:124'
p53
L283L
sS'16:39'
p54
L237L
sS'22:45'
p55
L252L
sS'17:54'
p56
L295L
sS'17:56'
p57
L297L
sS'10:77'
p58
L374L
sS'37:74'
p59
L277L
sS'6:15'
p60
L125L
sS'6:14'
p61
L123L
sS'17:35'
p62
L221L
sS'26:88'
p63
L320L
sS'16:113'
p64
L325L
sS'31:63'
p65
L275L
sS'5:17'
p66
L141L
sS'5:14'
p67
L126L
sS'4:11'
p68
L117L
sS'5:12'
p69
L118L
sS'5:13'
p70
L115L
sS'33:66'
p71
L275L
sS'40:84'
p72
L287L
sS'7:14'
p73
L122L
sS'18:36'
p74
L223L
sS'17:37'
p75
L232L
sS'11:54'
p76
L321L
sS'8:26'
p77
L179L
sS'13:108'
p78
L375L
sS'21:100'
p79
L358L
sS'11:58'
p80
L334L
sS'6:25'
p81
L175L
sS'31:76'
p82
L295L
sS'36:83'
p83
L285L
sS'32:75'
p84
L296L
sS'12:90'
p85
L357L
sS'32:125'
p86
L366L
sS'14:33'
p87
L210L
sS'6:28'
p88
L210L
sS'18:109'
p89
L361L
sS'15:34'
p90
L223L
sS'15:33'
p91
L204L
sS'15:39'
p92
L242L
sS'56:113'
p93
L277L
sS'56:112'
p94
L285L
sS'48:112'
p95
L291L
sS'32:86'
p96
L295L
sS'64:128'
p97
L285L
sS'6:23'
p98
L162L
sS'39:99'
p99
L301L
sS'28:57'
p100
L279L
sS'17:36'
p101
L219L
sS'38:123'
p102
L315L
sS'17:34'
p103
L226L
sS'27:118'
p104
L346L
sS'23:85'
p105
L313L
sS'19:80'
p106
L338L
sS'16:77'
p107
L335L
sS'30:72'
p108
L298L
sS'8:28'
p109
L193L
sS'15:49'
p110
L284L
sS'15:48'
p111
L312L
sS'8:24'
p112
L173L
sS'5:11'
p113
L118L
sS'9:76'
p114
L396L
sS'7:71'
p115
L369L
sS'33:72'
p116
L279L
sS'31:77'
p117
L301L
sS'3:27'
p118
L210L
sS'3:8'
p119
L111L
sS'3:9'
p120
L118L
sS'8:21'
p121
L154L
sS'26:76'
p122
L298L
sS'24:68'
p123
L315L
sS'3:7'
p124
L153L
sS'9:78'
p125
L339L
sS'1:4'
p126
L155L
sS'11:103'
p127
L332L
sS'30:60'
p128
L274L
sS'1:11'
p129
L174L
sS'30:67'
p130
L307L
sS'1:14'
p131
L178L
sS'1:15'
p132
L173L
sS'15:53'
p133
L297L
sS'34:71'
p134
L287L
sS'7:15'
p135
L126L
sS'7:16'
p136
L122L
sS'7:17'
p137
L132L
sS'7:18'
p138
L138L
sS'13:56'
p139
L320L
sS'12:66'
p140
L313L
sS'37:108'
p141
L304L
sS'37:104'
p142
L313L
sS'37:102'
p143
L291L
sS'26:104'
p144
L334L
sS'39:79'
p145
L285L
sS'24:74'
p146
L310L
sS'1:6'
p147
L151L
sS'12:127'
p148
L411L
sS'46:113'
p149
L299L
sS'10:33'
p150
L219L
sS'16:51'
p151
L287L
sS'38:100'
p152
L308L
sS'2:7'
p153
L126L
sS'2:6'
p154
L118L
sS'5:58'
p155
L322L
sS'2:4'
p156
L129L
sS'21:59'
p157
L299L
sS'14:48'
p158
L284L
sS'14:46'
p159
L289L
sS'14:45'
p160
L283L
sS'14:42'
p161
L264L
sS'4:10'
p162
L120L
sS'2:9'
p163
L118L
sS'34:69'
p164
L294L
sS'29:68'
p165
L288L
sS'25:111'
p166
L353L
sS'6:60'
p167
L357L
sS'10:24'
p168
L164L
sS'10:26'
p169
L173L
sS'41:103'
p170
L289L
sS'10:21'
p171
L150L
sS'10:28'
p172
L187L
sS'46:102'
p173
L279L
sS'5:18'
p174
L141L
sS'8:17'
p175
L134L
sS'8:19'
p176
L134L
sS'8:18'
p177
L129L
sS'17:62'
p178
L311L
sS'23:54'
p179
L292L
sS'15:79'
p180
L345L
sS'15:70'
p181
L341L
sS'10:31'
p182
L211L
s.