(dp0
S'45:105'
p1
L605L
sS'11:23'
p2
L323L
sS'13:34'
p3
L481L
sS'27:55'
p4
L580L
sS'10:51'
p5
L684L
sS'16:33'
p6
L431L
sS'10:55'
p7
L674L
sS'19:48'
p8
L575L
sS'12:34'
p9
L495L
sS'10:58'
p10
L711L
sS'7:56'
p11
L681L
sS'41:83'
p12
L591L
sS'46:92'
p13
L555L
sS'7:20'
p14
L340L
sS'20:72'
p15
L636L
sS'14:116'
p16
L759L
sS'9:38'
p17
L541L
sS'31:103'
p18
L653L
sS'21:75'
p19
L706L
sS'18:45'
p20
L538L
sS'11:30'
p21
L428L
sS'1:9'
p22
L317L
sS'1:4'
p23
L359L
sS'1:5'
p24
L374L
sS'1:6'
p25
L423L
sS'13:87'
p26
L721L
sS'13:84'
p27
L770L
sS'13:80'
p28
L729L
sS'12:35'
p29
L499L
sS'56:123'
p30
L630L
sS'12:32'
p31
L442L
sS'21:64'
p32
L646L
sS'54:123'
p33
L651L
sS'21:62'
p34
L638L
sS'15:125'
p35
L832L
sS'2:11'
p36
L289L
sS'49:110'
p37
L623L
sS'35:83'
p38
L618L
sS'9:22'
p39
L318L
sS'57:125'
p40
L581L
sS'9:20'
p41
L323L
sS'15:51'
p42
L624L
sS'27:86'
p43
L669L
sS'35:75'
p44
L586L
sS'51:128'
p45
L651L
sS'22:44'
p46
L530L
sS'26:83'
p47
L690L
sS'26:80'
p48
L664L
sS'37:74'
p49
L601L
sS'12:25'
p50
L351L
sS'22:49'
p51
L563L
sS'16:96'
p52
L714L
sS'18:65'
p53
L672L
sS'5:18'
p54
L308L
sS'20:43'
p55
L530L
sS'5:11'
p56
L267L
sS'40:81'
p57
L584L
sS'3:39'
p58
L614L
sS'7:15'
p59
L265L
sS'19:70'
p60
L665L
sS'17:116'
p61
L750L
sS'44:103'
p62
L627L
sS'11:55'
p63
L658L
sS'39:81'
p64
L565L
sS'11:51'
p65
L656L
sS'10:62'
p66
L716L
sS'45:90'
p67
L574L
sS'15:109'
p68
L704L
sS'16:64'
p69
L685L
sS'3:21'
p70
L370L
sS'14:39'
p71
L514L
sS'43:96'
p72
L602L
sS'14:37'
p73
L513L
sS'12:87'
p74
L755L
sS'31:123'
p75
L682L
sS'4:26'
p76
L391L
sS'18:101'
p77
L702L
sS'19:82'
p78
L702L
sS'29:59'
p79
L584L
sS'48:113'
p80
L592L
sS'35:70'
p81
L591L
sS'43:128'
p82
L686L
sS'64:128'
p83
L576L
sS'11:64'
p84
L691L
sS'35:78'
p85
L594L
sS'25:63'
p86
L620L
sS'17:36'
p87
L460L
sS'7:65'
p88
L707L
sS'17:34'
p89
L468L
sS'18:111'
p90
L747L
sS'16:41'
p91
L546L
sS'30:114'
p92
L694L
sS'8:28'
p93
L401L
sS'15:43'
p94
L538L
sS'11:31'
p95
L436L
sS'8:20'
p96
L317L
sS'8:21'
p97
L320L
sS'4:32'
p98
L502L
sS'21:126'
p99
L728L
sS'10:108'
p100
L749L
sS'57:115'
p101
L579L
sS'24:64'
p102
L626L
sS'13:43'
p103
L580L
sS'13:40'
p104
L565L
sS'3:6'
p105
L235L
sS'3:7'
p106
L251L
sS'13:45'
p107
L596L
sS'19:93'
p108
L684L
sS'1:10'
p109
L361L
sS'31:71'
p110
L616L
sS'27:80'
p111
L643L
sS'47:118'
p112
L630L
sS'23:73'
p113
L650L
sS'7:19'
p114
L304L
sS'15:50'
p115
L646L
sS'10:85'
p116
L723L
sS'15:57'
p117
L663L
sS'8:33'
p118
L483L
sS'14:54'
p119
L657L
sS'8:36'
p120
L546L
sS'17:96'
p121
L745L
sS'27:75'
p122
L638L
sS'13:53'
p123
L638L
sS'12:29'
p124
L398L
sS'28:65'
p125
L617L
sS'20:104'
p126
L734L
sS'59:118'
p127
L599L
sS'47:95'
p128
L551L
sS'10:30'
p129
L431L
sS'23:62'
p130
L653L
sS'20:52'
p131
L595L
sS'2:6'
p132
L284L
sS'2:4'
p133
L289L
sS'14:49'
p134
L633L
sS'20:59'
p135
L649L
sS'4:10'
p136
L258L
sS'2:8'
p137
L272L
sS'26:57'
p138
L603L
sS'28:89'
p139
L645L
sS'37:78'
p140
L577L
sS'7:43'
p141
L612L
sS'16:87'
p142
L669L
sS'12:53'
p143
L652L
sS'10:27'
p144
L390L
sS'10:21'
p145
L322L
sS'16:43'
p146
L540L
sS'33:98'
p147
L622L
sS'17:61'
p148
L670L
sS'8:18'
p149
L289L
sS'23:54'
p150
L586L
sS'17:44'
p151
L562L
sS'19:57'
p152
L638L
sS'8:52'
p153
L656L
sS'7:31'
p154
L465L
s.