(dp0
S'34:69'
p1
L1267L
sS'11:24'
p2
L1280L
sS'37:89'
p3
L1316L
sS'7:59'
p4
L1556L
sS'55:115'
p5
L1266L
sS'27:55'
p6
L1284L
sS'27:54'
p7
L1347L
sS'12:47'
p8
L1416L
sS'12:39'
p9
L1352L
sS'16:33'
p10
L1282L
sS'10:52'
p11
L1488L
sS'19:47'
p12
L1316L
sS'41:82'
p13
L1235L
sS'42:115'
p14
L1383L
sS'5:32'
p15
L1411L
sS'46:99'
p16
L1354L
sS'6:26'
p17
L1300L
sS'56:115'
p18
L1289L
sS'39:85'
p19
L1293L
sS'22:60'
p20
L1321L
sS'56:114'
p21
L1244L
sS'22:65'
p22
L1374L
sS'7:15'
p23
L1258L
sS'46:94'
p24
L1247L
sS'55:128'
p25
L1349L
sS'8:67'
p26
L1519L
sS'3:19'
p27
L1431L
sS'9:33'
p28
L1367L
sS'9:38'
p29
L1466L
sS'3:11'
p30
L1545L
sS'21:75'
p31
L1456L
sS'7:26'
p32
L1302L
sS'28:125'
p33
L1479L
sS'45:112'
p34
L1316L
sS'48:96'
p35
L1242L
sS'48:97'
p36
L1217L
sS'44:89'
p37
L1300L
sS'42:108'
p38
L1328L
sS'4:9'
p39
L1632L
sS'42:84'
p40
L1275L
sS'45:101'
p41
L1256L
sS'45:118'
p42
L1291L
sS'1:4'
p43
L6157L
sS'55:116'
p44
L1326L
sS'1:7'
p45
L3395L
sS'10:43'
p46
L1420L
sS'56:128'
p47
L1287L
sS'17:43'
p48
L1381L
sS'10:44'
p49
L1423L
sS'56:122'
p50
L1319L
sS'56:120'
p51
L1262L
sS'10:49'
p52
L1512L
sS'55:111'
p53
L1267L
sS'5:23'
p54
L1376L
sS'29:90'
p55
L1406L
sS'5:21'
p56
L1413L
sS'55:110'
p57
L1243L
sS'54:125'
p58
L1357L
sS'55:112'
p59
L1204L
sS'24:57'
p60
L1339L
sS'54:128'
p61
L1361L
sS'2:10'
p62
L1732L
sS'10:30'
p63
L1312L
sS'9:27'
p64
L1310L
sS'57:122'
p65
L1296L
sS'57:121'
p66
L1289L
sS'23:47'
p67
L1367L
sS'48:113'
p68
L1289L
sS'2:9'
p69
L1732L
sS'57:125'
p70
L1295L
sS'14:40'
p71
L1335L
sS'11:28'
p72
L1307L
sS'11:67'
p73
L1463L
sS'61:122'
p74
L1283L
sS'57:128'
p75
L1330L
sS'61:124'
p76
L1224L
sS'61:125'
p77
L1235L
sS'61:126'
p78
L1255L
sS'28:110'
p79
L1402L
sS'36:73'
p80
L1322L
sS'62:128'
p81
L1279L
sS'19:39'
p82
L1284L
sS'30:66'
p83
L1261L
sS'40:109'
p84
L1376L
sS'42:93'
p85
L1236L
sS'62:125'
p86
L1262L
sS'62:124'
p87
L1263L
sS'2:26'
p88
L1592L
sS'60:120'
p89
L1216L
sS'60:123'
p90
L1208L
sS'60:122'
p91
L1197L
sS'52:104'
p92
L1243L
sS'26:82'
p93
L1405L
sS'60:127'
p94
L1235L
sS'6:17'
p95
L1306L
sS'60:128'
p96
L1315L
sS'59:122'
p97
L1257L
sS'11:49'
p98
L1438L
sS'27:67'
p99
L1292L
sS'32:117'
p100
L1467L
sS'36:94'
p101
L1282L
sS'31:63'
p102
L1330L
sS'31:62'
p103
L1337L
sS'46:93'
p104
L1243L
sS'5:15'
p105
L1342L
sS'54:110'
p106
L1240L
sS'5:11'
p107
L1441L
sS'40:83'
p108
L1220L
sS'40:81'
p109
L1234L
sS'8:41'
p110
L1444L
sS'8:47'
p111
L1471L
sS'40:85'
p112
L1321L
sS'38:78'
p113
L1238L
sS'8:49'
p114
L1483L
sS'57:126'
p115
L1293L
sS'19:70'
p116
L1447L
sS'30:64'
p117
L1272L
sS'38:123'
p118
L1358L
sS'51:119'
p119
L1262L
sS'26:90'
p120
L1439L
sS'43:113'
p121
L1265L
sS'54:116'
p122
L1229L
sS'9:81'
p123
L1574L
sS'22:55'
p124
L1316L
sS'53:115'
p125
L1255L
sS'45:91'
p126
L1249L
sS'45:90'
p127
L1273L
sS'24:49'
p128
L1363L
sS'34:90'
p129
L1411L
sS'43:90'
p130
L1340L
sS'33:117'
p131
L1403L
sS'32:73'
p132
L1249L
sS'3:23'
p133
L1525L
sS'32:128'
p134
L1508L
sS'18:97'
p135
L1464L
sS'14:32'
p136
L1308L
sS'23:98'
p137
L1379L
sS'4:21'
p138
L1365L
sS'15:32'
p139
L1334L
sS'15:33'
p140
L1268L
sS'56:112'
p141
L1217L
sS'40:92'
p142
L1296L
sS'56:113'
p143
L1254L
sS'53:117'
p144
L1398L
sS'36:113'
p145
L1354L
sS'6:36'
p146
L1444L
sS'56:116'
p147
L1236L
sS'48:118'
p148
L1456L
sS'51:108'
p149
L1248L
sS'56:119'
p150
L1272L
sS'51:104'
p151
L1236L
sS'9:24'
p152
L1277L
sS'29:58'
p153
L1269L
sS'17:102'
p154
L1556L
sS'34:89'
p155
L1284L
sS'28:58'
p156
L1357L
sS'35:71'
p157
L1248L
sS'24:52'
p158
L1409L
sS'64:128'
p159
L1318L
sS'35:75'
p160
L1249L
sS'33:67'
p161
L1265L
sS'25:65'
p162
L1309L
sS'41:90'
p163
L1261L
sS'17:37'
p164
L1388L
sS'47:105'
p165
L1269L
sS'43:86'
p166
L1393L
sS'43:87'
p167
L1301L
sS'33:104'
p168
L1408L
sS'19:81'
p169
L1427L
sS'52:113'
p170
L1370L
sS'43:88'
p171
L1261L
sS'47:109'
p172
L1322L
sS'15:41'
p173
L1342L
sS'53:108'
p174
L1236L
sS'11:38'
p175
L1406L
sS'55:113'
p176
L1248L
sS'4:39'
p177
L1523L
sS'53:107'
p178
L1242L
sS'53:106'
p179
L1218L
sS'25:50'
p180
L1292L
sS'37:117'
p181
L1358L
sS'42:85'
p182
L1224L
sS'62:127'
p183
L1234L
sS'57:116'
p184
L1201L
sS'48:100'
p185
L1200L
sS'57:114'
p186
L1234L
sS'48:102'
p187
L1273L
sS'58:119'
p188
L1264L
sS'58:118'
p189
L1256L
sS'49:114'
p190
L1287L
sS'63:126'
p191
L1257L
sS'24:66'
p192
L1378L
sS'41:120'
p193
L1402L
sS'13:123'
p194
L1591L
sS'63:128'
p195
L1295L
sS'41:83'
p196
L1257L
sS'3:7'
p197
L1873L
sS'58:117'
p198
L1298L
sS'58:116'
p199
L1239L
sS'61:123'
p200
L1274L
sS'60:121'
p201
L1225L
sS'19:98'
p202
L1465L
sS'30:69'
p203
L1319L
sS'32:99'
p204
L1423L
sS'46:105'
p205
L1287L
sS'59:125'
p206
L1258L
sS'30:61'
p207
L1306L
sS'1:16'
p208
L2165L
sS'59:120'
p209
L1258L
sS'49:99'
p210
L1293L
sS'49:98'
p211
L1248L
sS'39:79'
p212
L1234L
sS'15:57'
p213
L1453L
sS'32:64'
p214
L1264L
sS'48:128'
p215
L1392L
sS'14:50'
p216
L1475L
sS'52:105'
p217
L1253L
sS'29:73'
p218
L1277L
sS'44:88'
p219
L1234L
sS'12:61'
p220
L1457L
sS'47:103'
p221
L1240L
sS'35:110'
p222
L1438L
sS'12:69'
p223
L1445L
sS'57:118'
p224
L1283L
sS'15:31'
p225
L1231L
sS'29:128'
p226
L1460L
sS'54:108'
p227
L1245L
sS'50:116'
p228
L1371L
sS'54:109'
p229
L1253L
sS'45:127'
p230
L1426L
sS'59:118'
p231
L1220L
sS'59:119'
p232
L1261L
sS'46:113'
p233
L1296L
sS'47:95'
p234
L1226L
sS'47:94'
p235
L1319L
sS'35:128'
p236
L1433L
sS'38:100'
p237
L1402L
sS'16:56'
p238
L1483L
sS'2:6'
p239
L2159L
sS'2:4'
p240
L2737L
sS'4:18'
p241
L1449L
sS'15:68'
p242
L1462L
sS'14:46'
p243
L1379L
sS'59:121'
p244
L1242L
sS'44:128'
p245
L1456L
sS'34:68'
p246
L1310L
sS'2:8'
p247
L1864L
sS'19:38'
p248
L1341L
sS'42:124'
p249
L1407L
sS'37:74'
p250
L1228L
sS'17:121'
p251
L1580L
sS'36:75'
p252
L1243L
sS'26:53'
p253
L1379L
sS'42:103'
p254
L1318L
sS'29:66'
p255
L1307L
sS'36:78'
p256
L1247L
sS'12:53'
p257
L1450L
sS'31:67'
p258
L1275L
sS'57:117'
p259
L1266L
sS'50:128'
p260
L1320L
sS'51:103'
p261
L1212L
sS'18:50'
p262
L1425L
sS'50:125'
p263
L1415L
sS'45:92'
p264
L1234L
sS'57:115'
p265
L1250L
sS'62:126'
p266
L1242L
sS'54:122'
p267
L1300L
sS'8:17'
p268
L1293L
sS'39:100'
p269
L1372L
sS'17:67'
p270
L1375L
sS'23:54'
p271
L1407L
sS'50:101'
p272
L1221L
sS'51:102'
p273
L1261L
sS'18:57'
p274
L1405L
sS'21:48'
p275
L1395L
sS'11:88'
p276
L1572L
sS'20:64'
p277
L1396L
sS'21:42'
p278
L1350L
sS'7:30'
p279
L1379L
sS'63:127'
p280
L1260L
s.