(dp0
S'5:15'
p1
L7312L
sS'11:22'
p2
L6371L
sS'25:108'
p3
L5578L
sS'13:35'
p4
L5979L
sS'37:84'
p5
L5233L
sS'28:94'
p6
L5434L
sS'37:86'
p7
L5255L
sS'37:83'
p8
L5280L
sS'16:33'
p9
L5705L
sS'52:125'
p10
L5213L
sS'20:80'
p11
L5500L
sS'10:57'
p12
L6225L
sS'26:123'
p13
L5511L
sS'56:117'
p14
L5220L
sS'26:126'
p15
L5642L
sS'52:128'
p16
L5183L
sS'13:37'
p17
L6012L
sS'54:115'
p18
L5187L
sS'54:116'
p19
L5157L
sS'5:34'
p20
L6582L
sS'54:110'
p21
L5224L
sS'5:36'
p22
L6890L
sS'14:63'
p23
L5716L
sS'46:92'
p24
L5143L
sS'46:93'
p25
L5161L
sS'14:68'
p26
L5682L
sS'46:97'
p27
L5209L
sS'55:128'
p28
L5272L
sS'9:30'
p29
L5818L
sS'3:19'
p30
L7503L
sS'49:128'
p31
L5331L
sS'51:106'
p32
L5207L
sS'7:21'
p33
L6476L
sS'49:127'
p34
L5308L
sS'55:122'
p35
L5263L
sS'11:32'
p36
L6206L
sS'48:97'
p37
L5148L
sS'44:89'
p38
L5140L
sS'42:108'
p39
L5297L
sS'42:85'
p40
L5190L
sS'42:84'
p41
L5114L
sS'45:101'
p42
L5306L
sS'31:93'
p43
L5401L
sS'1:4'
p44
L67674L
sS'1:5'
p45
L35431L
sS'51:102'
p46
L5158L
sS'49:100'
p47
L5244L
sS'56:128'
p48
L5337L
sS'10:41'
p49
L5746L
sS'43:86'
p50
L5295L
sS'36:127'
p51
L5389L
sS'48:101'
p52
L5151L
sS'12:33'
p53
L6032L
sS'56:125'
p54
L5256L
sS'55:114'
p55
L5220L
sS'54:121'
p56
L5256L
sS'55:110'
p57
L5197L
sS'55:111'
p58
L5206L
sS'55:112'
p59
L5052L
sS'54:128'
p60
L5274L
sS'5:29'
p61
L6806L
sS'33:69'
p62
L5415L
sS'54:111'
p63
L5272L
sS'35:83'
p64
L5265L
sS'9:26'
p65
L6443L
sS'23:85'
p66
L5604L
sS'34:104'
p67
L5382L
sS'61:122'
p68
L5088L
sS'2:11'
p69
L10518L
sS'64:128'
p70
L5167L
sS'44:99'
p71
L5356L
sS'21:88'
p72
L5599L
sS'30:114'
p73
L5454L
sS'16:37'
p74
L6016L
sS'42:122'
p75
L5367L
sS'51:128'
p76
L5258L
sS'62:125'
p77
L5124L
sS'62:124'
p78
L5227L
sS'60:121'
p79
L5120L
sS'60:120'
p80
L5184L
sS'60:125'
p81
L5164L
sS'49:99'
p82
L5077L
sS'60:127'
p83
L5125L
sS'52:107'
p84
L5277L
sS'52:108'
p85
L5293L
sS'52:109'
p86
L5190L
sS'6:15'
p87
L7605L
sS'49:98'
p88
L5276L
sS'22:49'
p89
L5425L
sS'46:99'
p90
L5240L
sS'36:92'
p91
L5299L
sS'32:111'
p92
L5487L
sS'6:68'
p93
L6035L
sS'25:94'
p94
L5461L
sS'15:111'
p95
L5587L
sS'51:117'
p96
L5295L
sS'5:12'
p97
L8938L
sS'48:98'
p98
L5362L
sS'8:43'
p99
L5913L
sS'32:93'
p100
L5360L
sS'33:121'
p101
L5562L
sS'49:103'
p102
L5290L
sS'49:105'
p103
L5228L
sS'53:110'
p104
L5092L
sS'58:116'
p105
L5129L
sS'28:109'
p106
L5462L
sS'30:83'
p107
L5420L
sS'51:118'
p108
L5349L
sS'44:100'
p109
L5404L
sS'44:102'
p110
L5212L
sS'30:89'
p111
L5378L
sS'46:121'
p112
L5224L
sS'11:54'
p113
L5879L
sS'39:128'
p114
L5472L
sS'52:119'
p115
L5299L
sS'50:106'
p116
L5225L
sS'45:92'
p117
L5133L
sS'45:91'
p118
L5165L
sS'45:90'
p119
L5126L
sS'10:65'
p120
L6028L
sS'32:65'
p121
L5203L
sS'49:117'
p122
L5274L
sS'32:121'
p123
L5546L
sS'3:21'
p124
L7218L
sS'18:88'
p125
L5585L
sS'43:97'
p126
L5155L
sS'3:22'
p127
L7689L
sS'54:112'
p128
L5167L
sS'15:34'
p129
L5891L
sS'4:26'
p130
L7187L
sS'45:98'
p131
L5379L
sS'50:107'
p132
L5249L
sS'50:128'
p133
L5344L
sS'56:112'
p134
L5114L
sS'56:113'
p135
L5146L
sS'6:34'
p136
L6246L
sS'41:101'
p137
L5592L
sS'29:64'
p138
L5378L
sS'56:115'
p139
L5265L
sS'51:107'
p140
L5289L
sS'40:126'
p141
L5464L
sS'51:105'
p142
L5109L
sS'51:104'
p143
L5266L
sS'51:103'
p144
L5024L
sS'37:128'
p145
L5604L
sS'25:68'
p146
L5442L
sS'24:54'
p147
L5528L
sS'43:128'
p148
L5440L
sS'39:95'
p149
L5400L
sS'41:97'
p150
L5377L
sS'41:95'
p151
L5367L
sS'35:79'
p152
L5239L
sS'33:66'
p153
L5270L
sS'24:58'
p154
L5817L
sS'47:104'
p155
L5194L
sS'47:102'
p156
L5192L
sS'20:128'
p157
L5699L
sS'38:124'
p158
L5606L
sS'47:101'
p159
L5329L
sS'33:128'
p160
L5507L
sS'38:128'
p161
L5460L
sS'43:89'
p162
L5234L
sS'21:107'
p163
L5580L
sS'10:97'
p164
L5864L
sS'47:95'
p165
L5122L
sS'8:24'
p166
L6061L
sS'31:76'
p167
L5304L
sS'53:107'
p168
L5401L
sS'6:43'
p169
L6122L
sS'37:116'
p170
L5391L
sS'3:24'
p171
L6747L
sS'21:128'
p172
L5609L
sS'53:108'
p173
L5228L
sS'57:114'
p174
L5144L
sS'28:68'
p175
L5324L
sS'50:102'
p176
L5140L
sS'50:103'
p177
L5316L
sS'50:100'
p178
L5321L
sS'50:101'
p179
L5209L
sS'41:122'
p180
L5377L
sS'11:79'
p181
L5895L
sS'35:102'
p182
L5412L
sS'50:105'
p183
L5142L
sS'29:118'
p184
L5415L
sS'26:74'
p185
L5458L
sS'41:83'
p186
L5277L
sS'58:117'
p187
L5305L
sS'34:110'
p188
L5390L
sS'47:115'
p189
L5348L
sS'43:102'
p190
L5427L
sS'47:117'
p191
L5318L
sS'47:111'
p192
L5270L
sS'47:113'
p193
L5174L
sS'50:110'
p194
L5204L
sS'59:126'
p195
L5227L
sS'1:14'
p196
L13714L
sS'59:122'
p197
L5186L
sS'20:41'
p198
L5466L
sS'8:19'
p199
L6604L
sS'20:43'
p200
L5419L
sS'43:94'
p201
L5196L
sS'20:46'
p202
L5641L
sS'8:33'
p203
L6087L
sS'52:104'
p204
L5069L
sS'8:37'
p205
L6283L
sS'52:105'
p206
L5264L
sS'37:95'
p207
L5295L
sS'27:72'
p208
L5601L
sS'43:110'
p209
L5424L
sS'6:56'
p210
L6254L
sS'17:92'
p211
L5636L
sS'27:76'
p212
L5610L
sS'27:79'
p213
L5458L
sS'28:79'
p214
L5312L
sS'32:76'
p215
L5289L
sS'48:96'
p216
L5164L
sS'35:118'
p217
L5460L
sS'50:111'
p218
L5247L
sS'26:109'
p219
L5499L
sS'50:113'
p220
L5220L
sS'53:106'
p221
L5130L
sS'54:108'
p222
L5100L
sS'39:78'
p223
L5319L
sS'39:79'
p224
L5305L
sS'8:86'
p225
L5926L
sS'59:118'
p226
L5218L
sS'59:119'
p227
L5119L
sS'33:88'
p228
L5573L
sS'38:84'
p229
L5291L
sS'47:94'
p230
L5084L
sS'47:97'
p231
L5191L
sS'44:88'
p232
L5148L
sS'23:62'
p233
L5591L
sS'23:63'
p234
L5618L
sS'20:52'
p235
L5476L
sS'20:50'
p236
L5671L
sS'25:82'
p237
L5434L
sS'38:76'
p238
L5236L
sS'15:68'
p239
L5708L
sS'4:16'
p240
L7572L
sS'15:63'
p241
L5556L
sS'34:68'
p242
L5231L
sS'36:73'
p243
L5107L
sS'36:72'
p244
L5166L
sS'26:56'
p245
L5456L
sS'31:119'
p246
L5379L
sS'29:69'
p247
L5474L
sS'26:52'
p248
L5482L
sS'53:128'
p249
L5186L
sS'6:66'
p250
L6097L
sS'28:84'
p251
L5537L
sS'53:109'
p252
L5277L
sS'31:114'
p253
L5525L
sS'41:100'
p254
L5289L
sS'15:84'
p255
L5604L
sS'41:87'
p256
L5285L
sS'41:103'
p257
L5320L
sS'10:20'
p258
L6471L
sS'50:104'
p259
L5405L
sS'57:115'
p260
L5094L
sS'10:29'
p261
L5997L
sS'56:121'
p262
L5284L
sS'46:102'
p263
L5239L
sS'23:59'
p264
L5664L
sS'9:42'
p265
L5967L
sS'46:107'
p266
L5188L
sS'9:46'
p267
L5947L
sS'33:92'
p268
L5385L
sS'38:112'
p269
L5296L
sS'36:96'
p270
L5506L
sS'5:49'
p271
L6210L
sS'28:66'
p272
L5580L
sS'54:109'
p273
L5146L
sS'17:127'
p274
L5679L
sS'11:80'
p275
L5793L
sS'40:111'
p276
L5237L
sS'16:128'
p277
L5694L
sS'11:87'
p278
L5611L
sS'15:76'
p279
L5779L
sS'63:127'
p280
L5254L
s.