(dp0
S'13:32'
p1
L413L
sS'11:25'
p2
L326L
sS'17:60'
p3
L648L
sS'11:22'
p4
L307L
sS'12:41'
p5
L561L
sS'12:45'
p6
L579L
sS'25:100'
p7
L649L
sS'31:106'
p8
L629L
sS'16:32'
p9
L425L
sS'16:34'
p10
L433L
sS'6:17'
p11
L277L
sS'26:120'
p12
L688L
sS'23:49'
p13
L544L
sS'5:36'
p14
L537L
sS'19:40'
p15
L502L
sS'8:66'
p16
L682L
sS'12:33'
p17
L435L
sS'9:33'
p18
L450L
sS'20:70'
p19
L689L
sS'20:71'
p20
L653L
sS'8:69'
p21
L680L
sS'1:9'
p22
L285L
sS'25:119'
p23
L706L
sS'28:91'
p24
L607L
sS'4:8'
p25
L220L
sS'1:4'
p26
L330L
sS'1:5'
p27
L332L
sS'31:96'
p28
L605L
sS'1:7'
p29
L308L
sS'17:46'
p30
L572L
sS'25:56'
p31
L567L
sS'12:36'
p32
L487L
sS'36:122'
p33
L638L
sS'12:32'
p34
L417L
sS'5:22'
p35
L329L
sS'2:18'
p36
L332L
sS'4:42'
p37
L610L
sS'5:26'
p38
L380L
sS'32:100'
p39
L598L
sS'21:63'
p40
L598L
sS'22:72'
p41
L645L
sS'12:111'
p42
L767L
sS'15:121'
p43
L726L
sS'12:116'
p44
L739L
sS'4:48'
p45
L676L
sS'9:27'
p46
L376L
sS'4:13'
p47
L238L
sS'9:21'
p48
L303L
sS'9:20'
p49
L306L
sS'2:8'
p50
L242L
sS'26:55'
p51
L564L
sS'42:97'
p52
L562L
sS'13:26'
p53
L337L
sS'42:92'
p54
L541L
sS'11:45'
p55
L591L
sS'22:46'
p56
L527L
sS'11:47'
p57
L621L
sS'17:53'
p58
L599L
sS'17:55'
p59
L602L
sS'6:18'
p60
L287L
sS'17:58'
p61
L627L
sS'12:27'
p62
L364L
sS'12:24'
p63
L352L
sS'6:14'
p64
L238L
sS'6:13'
p65
L226L
sS'6:12'
p66
L235L
sS'20:41'
p67
L486L
sS'9:91'
p68
L727L
sS'5:12'
p69
L230L
sS'5:13'
p70
L234L
sS'5:10'
p71
L238L
sS'5:11'
p72
L240L
sS'33:128'
p73
L654L
sS'40:80'
p74
L534L
sS'8:46'
p75
L622L
sS'21:52'
p76
L581L
sS'3:34'
p77
L527L
sS'51:116'
p78
L578L
sS'20:46'
p79
L551L
sS'22:53'
p80
L568L
sS'22:56'
p81
L574L
sS'8:16'
p82
L258L
sS'6:22'
p83
L326L
sS'6:20'
p84
L313L
sS'6:21'
p85
L325L
sS'34:93'
p86
L596L
sS'52:112'
p87
L548L
sS'3:27'
p88
L416L
sS'3:26'
p89
L387L
sS'18:102'
p90
L655L
sS'3:20'
p91
L339L
sS'23:91'
p92
L687L
sS'3:29'
p93
L431L
sS'3:11'
p94
L249L
sS'40:98'
p95
L574L
sS'15:31'
p96
L409L
sS'15:33'
p97
L416L
sS'8:55'
p98
L663L
sS'19:39'
p99
L472L
sS'8:50'
p100
L663L
sS'10:21'
p101
L302L
sS'6:39'
p102
L550L
sS'24:53'
p103
L531L
sS'39:97'
p104
L586L
sS'4:9'
p105
L221L
sS'26:61'
p106
L578L
sS'43:122'
p107
L590L
sS'17:34'
p108
L442L
sS'32:65'
p109
L588L
sS'32:66'
p110
L583L
sS'19:80'
p111
L655L
sS'22:119'
p112
L690L
sS'27:117'
p113
L688L
sS'6:27'
p114
L398L
sS'15:40'
p115
L529L
sS'28:66'
p116
L598L
sS'28:62'
p117
L580L
sS'3:8'
p118
L281L
sS'50:101'
p119
L550L
sS'12:26'
p120
L339L
sS'24:65'
p121
L623L
sS'24:69'
p122
L613L
sS'3:6'
p123
L215L
sS'3:7'
p124
L234L
sS'27:63'
p125
L585L
sS'23:113'
p126
L697L
sS'18:128'
p127
L760L
sS'38:99'
p128
L615L
sS'1:11'
p129
L390L
sS'22:45'
p130
L518L
sS'19:94'
p131
L704L
sS'1:15'
p132
L365L
sS'15:52'
p133
L606L
sS'49:98'
p134
L562L
sS'7:15'
p135
L243L
sS'7:16'
p136
L250L
sS'25:92'
p137
L650L
sS'7:18'
p138
L283L
sS'18:39'
p139
L482L
sS'18:38'
p140
L483L
sS'13:54'
p141
L638L
sS'29:75'
p142
L616L
sS'12:65'
p143
L650L
sS'14:33'
p144
L411L
sS'20:106'
p145
L678L
sS'45:128'
p146
L651L
sS'29:128'
p147
L647L
sS'39:78'
p148
L545L
sS'1:6'
p149
L371L
sS'33:88'
p150
L627L
sS'47:122'
p151
L624L
sS'10:38'
p152
L533L
sS'24:125'
p153
L656L
sS'23:65'
p154
L616L
sS'38:103'
p155
L629L
sS'2:7'
p156
L237L
sS'2:6'
p157
L249L
sS'2:5'
p158
L232L
sS'2:4'
p159
L261L
sS'4:14'
p160
L260L
sS'4:17'
p161
L295L
sS'44:128'
p162
L685L
sS'4:11'
p163
L241L
sS'4:10'
p164
L234L
sS'21:53'
p165
L586L
sS'4:12'
p166
L236L
sS'26:54'
p167
L568L
sS'35:104'
p168
L595L
sS'26:56'
p169
L560L
sS'22:91'
p170
L685L
sS'34:68'
p171
L593L
sS'12:57'
p172
L663L
sS'31:94'
p173
L602L
sS'27:68'
p174
L609L
sS'36:78'
p175
L589L
sS'53:123'
p176
L570L
sS'29:62'
p177
L574L
sS'6:61'
p178
L714L
sS'10:24'
p179
L336L
sS'10:26'
p180
L346L
sS'16:41'
p181
L524L
sS'10:22'
p182
L296L
sS'10:23'
p183
L305L
sS'50:126'
p184
L648L
sS'2:15'
p185
L282L
sS'50:120'
p186
L584L
sS'15:88'
p187
L702L
sS'23:59'
p188
L610L
sS'10:43'
p189
L577L
sS'8:19'
p190
L292L
sS'38:112'
p191
L604L
sS'21:43'
p192
L511L
sS'3:9'
p193
L236L
sS'20:68'
p194
L626L
sS'11:89'
p195
L704L
sS'21:47'
p196
L555L
sS'18:52'
p197
L608L
sS'18:54'
p198
L626L
s.