(dp0
S'13:32'
p1
L439L
sS'11:26'
p2
L369L
sS'11:25'
p3
L351L
sS'13:37'
p4
L540L
sS'42:119'
p5
L666L
sS'23:46'
p6
L560L
sS'16:32'
p7
L461L
sS'16:35'
p8
L473L
sS'38:82'
p9
L575L
sS'19:44'
p10
L571L
sS'54:116'
p11
L620L
sS'11:93'
p12
L779L
sS'18:49'
p13
L612L
sS'8:61'
p14
L738L
sS'49:128'
p15
L644L
sS'3:17'
p16
L341L
sS'3:10'
p17
L270L
sS'3:13'
p18
L268L
sS'11:33'
p19
L467L
sS'25:119'
p20
L746L
sS'4:9'
p21
L242L
sS'4:8'
p22
L246L
sS'42:104'
p23
L613L
sS'1:4'
p24
L361L
sS'1:5'
p25
L374L
sS'10:42'
p26
L588L
sS'25:50'
p27
L548L
sS'10:41'
p28
L596L
sS'12:34'
p29
L501L
sS'56:120'
p30
L632L
sS'12:30'
p31
L424L
sS'32:104'
p32
L664L
sS'9:19'
p33
L302L
sS'55:110'
p34
L620L
sS'4:41'
p35
L625L
sS'54:128'
p36
L651L
sS'5:28'
p37
L426L
sS'2:17'
p38
L345L
sS'32:108'
p39
L662L
sS'38:76'
p40
L583L
sS'9:27'
p41
L401L
sS'52:122'
p42
L683L
sS'34:69'
p43
L614L
sS'7:78'
p44
L724L
sS'42:97'
p45
L624L
sS'22:47'
p46
L560L
sS'2:24'
p47
L416L
sS'2:22'
p48
L398L
sS'12:28'
p49
L376L
sS'26:80'
p50
L656L
sS'6:16'
p51
L274L
sS'6:15'
p52
L275L
sS'43:109'
p53
L641L
sS'11:49'
p54
L646L
sS'10:72'
p55
L715L
sS'10:70'
p56
L715L
sS'18:62'
p57
L669L
sS'38:77'
p58
L607L
sS'31:62'
p59
L595L
sS'26:53'
p60
L588L
sS'5:12'
p61
L251L
sS'5:13'
p62
L258L
sS'5:11'
p63
L265L
sS'40:83'
p64
L624L
sS'8:47'
p65
L672L
sS'49:101'
p66
L570L
sS'9:18'
p67
L328L
sS'23:125'
p68
L783L
sS'3:35'
p69
L551L
sS'51:116'
p70
L669L
sS'17:113'
p71
L788L
sS'22:57'
p72
L649L
sS'6:22'
p73
L345L
sS'25:74'
p74
L681L
sS'13:60'
p75
L694L
sS'13:63'
p76
L691L
sS'43:87'
p77
L567L
sS'33:114'
p78
L667L
sS'32:76'
p79
L601L
sS'3:26'
p80
L403L
sS'18:100'
p81
L728L
sS'18:38'
p82
L510L
sS'14:33'
p83
L437L
sS'31:78'
p84
L619L
sS'14:30'
p85
L418L
sS'15:30'
p86
L424L
sS'15:31'
p87
L433L
sS'15:32'
p88
L429L
sS'4:23'
p89
L364L
sS'56:113'
p90
L607L
sS'56:112'
p91
L614L
sS'29:58'
p92
L597L
sS'24:57'
p93
L615L
sS'28:58'
p94
L580L
sS'35:71'
p95
L601L
sS'26:68'
p96
L649L
sS'24:50'
p97
L607L
sS'28:56'
p98
L589L
sS'28:57'
p99
L593L
sS'24:59'
p100
L615L
sS'14:28'
p101
L420L
sS'17:34'
p102
L471L
sS'45:90'
p103
L590L
sS'13:52'
p104
L639L
sS'27:95'
p105
L660L
sS'23:89'
p106
L690L
sS'12:87'
p107
L741L
sS'18:83'
p108
L720L
sS'4:37'
p109
L596L
sS'8:29'
p110
L443L
sS'15:44'
p111
L583L
sS'8:24'
p112
L364L
sS'8:25'
p113
L359L
sS'3:25'
p114
L403L
sS'28:60'
p115
L613L
sS'6:48'
p116
L673L
sS'6:49'
p117
L711L
sS'47:94'
p118
L566L
sS'50:100'
p119
L609L
sS'26:111'
p120
L693L
sS'3:6'
p121
L241L
sS'3:7'
p122
L244L
sS'42:84'
p123
L588L
sS'18:46'
p124
L561L
sS'1:10'
p125
L362L
sS'23:76'
p126
L670L
sS'27:81'
p127
L669L
sS'20:43'
p128
L535L
sS'18:37'
p129
L524L
sS'7:17'
p130
L299L
sS'9:60'
p131
L672L
sS'29:75'
p132
L658L
sS'6:13'
p133
L246L
sS'50:117'
p134
L628L
sS'12:27'
p135
L385L
sS'13:71'
p136
L694L
sS'8:82'
p137
L808L
sS'19:61'
p138
L640L
sS'12:25'
p139
L347L
sS'23:69'
p140
L673L
sS'10:33'
p141
L448L
sS'32:87'
p142
L650L
sS'38:102'
p143
L609L
sS'6:12'
p144
L264L
sS'2:7'
p145
L265L
sS'2:6'
p146
L279L
sS'2:5'
p147
L257L
sS'2:4'
p148
L273L
sS'44:126'
p149
L651L
sS'37:119'
p150
L693L
sS'14:47'
p151
L652L
sS'21:57'
p152
L639L
sS'4:11'
p153
L256L
sS'4:10'
p154
L256L
sS'2:9'
p155
L257L
sS'2:8'
p156
L273L
sS'19:39'
p157
L500L
sS'37:74'
p158
L622L
sS'37:75'
p159
L592L
sS'13:27'
p160
L381L
sS'27:65'
p161
L642L
sS'28:84'
p162
L673L
sS'36:78'
p163
L597L
sS'6:60'
p164
L739L
sS'10:26'
p165
L373L
sS'10:21'
p166
L330L
sS'9:40'
p167
L591L
sS'5:41'
p168
L622L
sS'8:17'
p169
L302L
sS'8:16'
p170
L282L
sS'9:49'
p171
L665L
sS'23:50'
p172
L592L
sS'3:8'
p173
L247L
sS'21:48'
p174
L588L
sS'11:86'
p175
L732L
sS'7:36'
p176
L534L
sS'21:45'
p177
L538L
sS'21:42'
p178
L522L
sS'21:43'
p179
L519L
s.