(dp0
S'45:104'
p1
L4145L
sS'45:105'
p2
L4290L
sS'11:25'
p3
L4737L
sS'11:24'
p4
L5242L
sS'11:23'
p5
L4856L
sS'45:101'
p6
L4159L
sS'48:100'
p7
L4211L
sS'25:109'
p8
L4428L
sS'27:56'
p9
L4327L
sS'14:92'
p10
L4730L
sS'31:83'
p11
L4283L
sS'37:80'
p12
L4243L
sS'19:49'
p13
L4744L
sS'36:117'
p14
L4390L
sS'15:91'
p15
L4718L
sS'45:100'
p16
L4073L
sS'46:98'
p17
L4216L
sS'54:110'
p18
L4114L
sS'20:53'
p19
L4739L
sS'46:92'
p20
L4061L
sS'46:93'
p21
L4027L
sS'46:94'
p22
L4085L
sS'24:104'
p23
L4493L
sS'48:126'
p24
L4130L
sS'8:67'
p25
L4874L
sS'24:84'
p26
L4311L
sS'49:128'
p27
L4218L
sS'21:72'
p28
L4381L
sS'58:116'
p29
L4028L
sS'3:12'
p30
L7330L
sS'1:8'
p31
L26352L
sS'40:117'
p32
L4264L
sS'45:111'
p33
L4341L
sS'48:97'
p34
L4063L
sS'11:35'
p35
L4788L
sS'44:89'
p36
L4184L
sS'44:88'
p37
L3996L
sS'25:115'
p38
L4423L
sS'37:97'
p39
L4289L
sS'37:94'
p40
L4225L
sS'42:104'
p41
L4206L
sS'1:4'
p42
L68532L
sS'48:99'
p43
L4153L
sS'21:97'
p44
L4765L
sS'35:120'
p45
L4280L
sS'25:51'
p46
L4268L
sS'25:50'
p47
L4320L
sS'25:52'
p48
L4513L
sS'25:54'
p49
L4758L
sS'25:58'
p50
L4301L
sS'56:120'
p51
L4146L
sS'56:127'
p52
L4231L
sS'12:32'
p53
L5087L
sS'27:122'
p54
L4442L
sS'55:110'
p55
L4080L
sS'15:128'
p56
L4803L
sS'55:112'
p57
L3976L
sS'27:125'
p58
L4509L
sS'29:96'
p59
L4228L
sS'12:117'
p60
L4750L
sS'22:74'
p61
L4504L
sS'61:128'
p62
L4097L
sS'35:86'
p63
L4160L
sS'9:20'
p64
L5998L
sS'15:92'
p65
L4498L
sS'61:122'
p66
L4023L
sS'57:128'
p67
L4181L
sS'55:111'
p68
L4078L
sS'44:99'
p69
L3997L
sS'62:128'
p70
L4160L
sS'41:119'
p71
L4144L
sS'51:122'
p72
L4106L
sS'40:116'
p73
L4358L
sS'42:97'
p74
L4167L
sS'42:92'
p75
L4185L
sS'51:128'
p76
L4142L
sS'21:84'
p77
L4337L
sS'62:124'
p78
L4030L
sS'34:126'
p79
L4400L
sS'11:44'
p80
L5397L
sS'52:104'
p81
L3987L
sS'34:123'
p82
L4295L
sS'17:56'
p83
L4510L
sS'6:18'
p84
L5880L
sS'6:13'
p85
L6314L
sS'24:75'
p86
L4298L
sS'32:116'
p87
L4387L
sS'31:63'
p88
L4184L
sS'41:93'
p89
L4346L
sS'33:66'
p90
L4141L
sS'49:109'
p91
L4125L
sS'40:81'
p92
L4135L
sS'40:80'
p93
L4127L
sS'40:87'
p94
L4238L
sS'35:99'
p95
L4185L
sS'40:85'
p96
L4009L
sS'40:84'
p97
L4085L
sS'49:100'
p98
L4245L
sS'49:101'
p99
L4157L
sS'35:96'
p100
L4224L
sS'49:104'
p101
L4044L
sS'47:102'
p102
L4203L
sS'30:85'
p103
L4367L
sS'52:106'
p104
L4008L
sS'28:101'
p105
L4415L
sS'39:87'
p106
L4113L
sS'11:57'
p107
L5018L
sS'43:113'
p108
L4201L
sS'6:29'
p109
L5357L
sS'39:83'
p110
L4203L
sS'34:99'
p111
L4362L
sS'45:93'
p112
L4110L
sS'45:92'
p113
L4022L
sS'45:91'
p114
L4135L
sS'45:90'
p115
L4162L
sS'24:49'
p116
L4393L
sS'9:88'
p117
L4623L
sS'13:63'
p118
L4685L
sS'43:87'
p119
L4072L
sS'12:93'
p120
L4537L
sS'11:56'
p121
L4938L
sS'61:123'
p122
L4063L
sS'23:93'
p123
L4352L
sS'14:39'
p124
L5053L
sS'23:90'
p125
L4541L
sS'44:108'
p126
L4085L
sS'30:128'
p127
L4387L
sS'18:93'
p128
L4476L
sS'4:21'
p129
L5604L
sS'43:90'
p130
L4258L
sS'40:91'
p131
L4145L
sS'56:112'
p132
L4114L
sS'43:89'
p133
L4193L
sS'37:121'
p134
L4356L
sS'53:110'
p135
L4016L
sS'53:111'
p136
L4082L
sS'51:107'
p137
L4182L
sS'51:106'
p138
L4008L
sS'51:105'
p139
L4038L
sS'51:104'
p140
L4200L
sS'51:103'
p141
L3945L
sS'29:58'
p142
L4249L
sS'30:74'
p143
L4401L
sS'35:71'
p144
L4449L
sS'50:104'
p145
L4182L
sS'64:128'
p146
L4085L
sS'49:102'
p147
L4099L
sS'26:65'
p148
L4451L
sS'29:77'
p149
L4467L
sS'25:62'
p150
L4506L
sS'33:67'
p151
L4152L
sS'28:57'
p152
L4310L
sS'25:66'
p153
L4358L
sS'25:67'
p154
L4667L
sS'33:100'
p155
L4456L
sS'12:88'
p156
L4535L
sS'32:65'
p157
L4146L
sS'47:101'
p158
L4182L
sS'52:113'
p159
L4219L
sS'43:88'
p160
L4276L
sS'18:85'
p161
L4418L
sS'30:75'
p162
L4266L
sS'19:84'
p163
L4574L
sS'47:108'
p164
L4279L
sS'45:96'
p165
L4058L
sS'15:43'
p166
L5192L
sS'53:108'
p167
L4081L
sS'53:107'
p168
L4299L
sS'53:106'
p169
L4102L
sS'42:106'
p170
L4098L
sS'31:77'
p171
L4358L
sS'47:105'
p172
L4094L
sS'21:128'
p173
L4548L
sS'46:101'
p174
L4250L
sS'57:114'
p175
L4057L
sS'57:115'
p176
L3999L
sS'47:94'
p177
L4058L
sS'50:100'
p178
L4085L
sS'50:101'
p179
L4131L
sS'11:78'
p180
L4662L
sS'63:127'
p181
L4166L
sS'52:114'
p182
L4204L
sS'52:107'
p183
L4158L
sS'41:84'
p184
L4091L
sS'41:85'
p185
L4042L
sS'58:117'
p186
L4202L
sS'26:71'
p187
L4440L
sS'23:117'
p188
L4406L
sS'60:121'
p189
L4155L
sS'27:63'
p190
L4397L
sS'23:110'
p191
L4388L
sS'30:63'
p192
L4253L
sS'30:60'
p193
L4223L
sS'30:61'
p194
L4404L
sS'49:99'
p195
L4130L
sS'49:98'
p196
L3990L
sS'20:41'
p197
L4563L
sS'46:128'
p198
L4257L
sS'18:37'
p199
L4482L
sS'10:83'
p200
L4559L
sS'25:92'
p201
L4262L
sS'20:48'
p202
L4677L
sS'46:123'
p203
L4246L
sS'52:105'
p204
L4064L
sS'11:30'
p205
L4908L
sS'28:72'
p206
L4208L
sS'27:72'
p207
L4279L
sS'13:50'
p208
L4532L
sS'43:104'
p209
L4272L
sS'29:74'
p210
L4286L
sS'60:120'
p211
L4047L
sS'6:58'
p212
L5216L
sS'48:96'
p213
L4118L
sS'29:128'
p214
L4440L
sS'54:108'
p215
L4219L
sS'39:78'
p216
L4067L
sS'39:79'
p217
L4097L
sS'29:125'
p218
L4476L
sS'54:109'
p219
L4162L
sS'43:105'
p220
L4133L
sS'42:88'
p221
L4117L
sS'59:118'
p222
L4118L
sS'59:119'
p223
L4201L
sS'46:117'
p224
L4222L
sS'38:109'
p225
L4363L
sS'33:81'
p226
L4209L
sS'24:128'
p227
L4462L
sS'12:128'
p228
L4699L
sS'28:60'
p229
L4463L
sS'38:81'
p230
L4105L
sS'10:34'
p231
L5098L
sS'2:7'
p232
L12170L
sS'2:6'
p233
L13922L
sS'2:5'
p234
L17099L
sS'4:19'
p235
L6409L
sS'25:83'
p236
L4293L
sS'42:84'
p237
L4082L
sS'44:128'
p238
L4338L
sS'34:69'
p239
L4146L
sS'19:38'
p240
L4878L
sS'36:72'
p241
L4081L
sS'26:57'
p242
L4632L
sS'37:75'
p243
L4051L
sS'37:76'
p244
L4201L
sS'38:76'
p245
L4047L
sS'42:107'
p246
L4384L
sS'48:101'
p247
L4091L
sS'28:81'
p248
L4386L
sS'37:93'
p249
L4220L
sS'41:102'
p250
L4280L
sS'41:104'
p251
L4264L
sS'42:101'
p252
L4170L
sS'37:90'
p253
L4414L
sS'16:49'
p254
L4742L
sS'46:103'
p255
L4186L
sS'9:43'
p256
L5015L
sS'3:22'
p257
L6331L
sS'23:53'
p258
L4475L
sS'17:60'
p259
L4603L
sS'17:62'
p260
L4569L
sS'33:94'
p261
L4265L
sS'38:114'
p262
L4261L
sS'47:95'
p263
L4083L
sS'51:102'
p264
L4158L
sS'16:52'
p265
L4712L
sS'14:73'
p266
L4691L
sS'63:126'
p267
L4086L
sS'21:45'
p268
L4541L
sS'11:42'
p269
L5090L
sS'7:33'
p270
L5109L
sS'17:128'
p271
L4586L
s.